
Addatone_STM32L152.elf:     file format elf32-littlearm

Sections:
Idx Name          Size      VMA       LMA       File off  Algn
  0 .isr_vector   0000013c  08000000  08000000  00010000  2**0
                  CONTENTS, ALLOC, LOAD, READONLY, DATA
  1 .text         0000248c  0800013c  0800013c  0001013c  2**2
                  CONTENTS, ALLOC, LOAD, READONLY, CODE
  2 .rodata       00000044  080025c8  080025c8  000125c8  2**2
                  CONTENTS, ALLOC, LOAD, READONLY, DATA
  3 .ARM.extab    00000000  0800260c  0800260c  00020070  2**0
                  CONTENTS
  4 .ARM          00000000  0800260c  0800260c  00020070  2**0
                  CONTENTS
  5 .preinit_array 00000000  0800260c  0800260c  00020070  2**0
                  CONTENTS, ALLOC, LOAD, DATA
  6 .init_array   00000004  0800260c  0800260c  0001260c  2**2
                  CONTENTS, ALLOC, LOAD, DATA
  7 .fini_array   00000004  08002610  08002610  00012610  2**2
                  CONTENTS, ALLOC, LOAD, DATA
  8 .data         00000070  20000000  08002614  00020000  2**2
                  CONTENTS, ALLOC, LOAD, DATA
  9 .bss          0000006c  20000070  08002684  00020070  2**2
                  ALLOC
 10 ._user_heap_stack 00000604  200000dc  08002684  000200dc  2**0
                  ALLOC
 11 .ARM.attributes 00000029  00000000  00000000  00020070  2**0
                  CONTENTS, READONLY
 12 .debug_info   0000397c  00000000  00000000  00020099  2**0
                  CONTENTS, READONLY, DEBUGGING
 13 .debug_abbrev 00000b1b  00000000  00000000  00023a15  2**0
                  CONTENTS, READONLY, DEBUGGING
 14 .debug_aranges 00000150  00000000  00000000  00024530  2**3
                  CONTENTS, READONLY, DEBUGGING
 15 .debug_ranges 00000118  00000000  00000000  00024680  2**3
                  CONTENTS, READONLY, DEBUGGING
 16 .debug_macro  0000ffc7  00000000  00000000  00024798  2**0
                  CONTENTS, READONLY, DEBUGGING
 17 .debug_line   00002317  00000000  00000000  0003475f  2**0
                  CONTENTS, READONLY, DEBUGGING
 18 .debug_str    0004e008  00000000  00000000  00036a76  2**0
                  CONTENTS, READONLY, DEBUGGING
 19 .comment      0000007b  00000000  00000000  00084a7e  2**0
                  CONTENTS, READONLY
 20 .debug_frame  00000844  00000000  00000000  00084afc  2**2
                  CONTENTS, READONLY, DEBUGGING

Disassembly of section .text:

0800013c <__do_global_dtors_aux>:
 800013c:	b510      	push	{r4, lr}
 800013e:	4c05      	ldr	r4, [pc, #20]	; (8000154 <__do_global_dtors_aux+0x18>)
 8000140:	7823      	ldrb	r3, [r4, #0]
 8000142:	b933      	cbnz	r3, 8000152 <__do_global_dtors_aux+0x16>
 8000144:	4b04      	ldr	r3, [pc, #16]	; (8000158 <__do_global_dtors_aux+0x1c>)
 8000146:	b113      	cbz	r3, 800014e <__do_global_dtors_aux+0x12>
 8000148:	4804      	ldr	r0, [pc, #16]	; (800015c <__do_global_dtors_aux+0x20>)
 800014a:	f3af 8000 	nop.w
 800014e:	2301      	movs	r3, #1
 8000150:	7023      	strb	r3, [r4, #0]
 8000152:	bd10      	pop	{r4, pc}
 8000154:	20000070 	.word	0x20000070
 8000158:	00000000 	.word	0x00000000
 800015c:	080025b0 	.word	0x080025b0

08000160 <frame_dummy>:
 8000160:	b508      	push	{r3, lr}
 8000162:	4b03      	ldr	r3, [pc, #12]	; (8000170 <frame_dummy+0x10>)
 8000164:	b11b      	cbz	r3, 800016e <frame_dummy+0xe>
 8000166:	4903      	ldr	r1, [pc, #12]	; (8000174 <frame_dummy+0x14>)
 8000168:	4803      	ldr	r0, [pc, #12]	; (8000178 <frame_dummy+0x18>)
 800016a:	f3af 8000 	nop.w
 800016e:	bd08      	pop	{r3, pc}
 8000170:	00000000 	.word	0x00000000
 8000174:	20000074 	.word	0x20000074
 8000178:	080025b0 	.word	0x080025b0

0800017c <__aeabi_drsub>:
 800017c:	f081 4100 	eor.w	r1, r1, #2147483648	; 0x80000000
 8000180:	e002      	b.n	8000188 <__adddf3>
 8000182:	bf00      	nop

08000184 <__aeabi_dsub>:
 8000184:	f083 4300 	eor.w	r3, r3, #2147483648	; 0x80000000

08000188 <__adddf3>:
 8000188:	b530      	push	{r4, r5, lr}
 800018a:	ea4f 0441 	mov.w	r4, r1, lsl #1
 800018e:	ea4f 0543 	mov.w	r5, r3, lsl #1
 8000192:	ea94 0f05 	teq	r4, r5
 8000196:	bf08      	it	eq
 8000198:	ea90 0f02 	teqeq	r0, r2
 800019c:	bf1f      	itttt	ne
 800019e:	ea54 0c00 	orrsne.w	ip, r4, r0
 80001a2:	ea55 0c02 	orrsne.w	ip, r5, r2
 80001a6:	ea7f 5c64 	mvnsne.w	ip, r4, asr #21
 80001aa:	ea7f 5c65 	mvnsne.w	ip, r5, asr #21
 80001ae:	f000 80e2 	beq.w	8000376 <__adddf3+0x1ee>
 80001b2:	ea4f 5454 	mov.w	r4, r4, lsr #21
 80001b6:	ebd4 5555 	rsbs	r5, r4, r5, lsr #21
 80001ba:	bfb8      	it	lt
 80001bc:	426d      	neglt	r5, r5
 80001be:	dd0c      	ble.n	80001da <__adddf3+0x52>
 80001c0:	442c      	add	r4, r5
 80001c2:	ea80 0202 	eor.w	r2, r0, r2
 80001c6:	ea81 0303 	eor.w	r3, r1, r3
 80001ca:	ea82 0000 	eor.w	r0, r2, r0
 80001ce:	ea83 0101 	eor.w	r1, r3, r1
 80001d2:	ea80 0202 	eor.w	r2, r0, r2
 80001d6:	ea81 0303 	eor.w	r3, r1, r3
 80001da:	2d36      	cmp	r5, #54	; 0x36
 80001dc:	bf88      	it	hi
 80001de:	bd30      	pophi	{r4, r5, pc}
 80001e0:	f011 4f00 	tst.w	r1, #2147483648	; 0x80000000
 80001e4:	ea4f 3101 	mov.w	r1, r1, lsl #12
 80001e8:	f44f 1c80 	mov.w	ip, #1048576	; 0x100000
 80001ec:	ea4c 3111 	orr.w	r1, ip, r1, lsr #12
 80001f0:	d002      	beq.n	80001f8 <__adddf3+0x70>
 80001f2:	4240      	negs	r0, r0
 80001f4:	eb61 0141 	sbc.w	r1, r1, r1, lsl #1
 80001f8:	f013 4f00 	tst.w	r3, #2147483648	; 0x80000000
 80001fc:	ea4f 3303 	mov.w	r3, r3, lsl #12
 8000200:	ea4c 3313 	orr.w	r3, ip, r3, lsr #12
 8000204:	d002      	beq.n	800020c <__adddf3+0x84>
 8000206:	4252      	negs	r2, r2
 8000208:	eb63 0343 	sbc.w	r3, r3, r3, lsl #1
 800020c:	ea94 0f05 	teq	r4, r5
 8000210:	f000 80a7 	beq.w	8000362 <__adddf3+0x1da>
 8000214:	f1a4 0401 	sub.w	r4, r4, #1
 8000218:	f1d5 0e20 	rsbs	lr, r5, #32
 800021c:	db0d      	blt.n	800023a <__adddf3+0xb2>
 800021e:	fa02 fc0e 	lsl.w	ip, r2, lr
 8000222:	fa22 f205 	lsr.w	r2, r2, r5
 8000226:	1880      	adds	r0, r0, r2
 8000228:	f141 0100 	adc.w	r1, r1, #0
 800022c:	fa03 f20e 	lsl.w	r2, r3, lr
 8000230:	1880      	adds	r0, r0, r2
 8000232:	fa43 f305 	asr.w	r3, r3, r5
 8000236:	4159      	adcs	r1, r3
 8000238:	e00e      	b.n	8000258 <__adddf3+0xd0>
 800023a:	f1a5 0520 	sub.w	r5, r5, #32
 800023e:	f10e 0e20 	add.w	lr, lr, #32
 8000242:	2a01      	cmp	r2, #1
 8000244:	fa03 fc0e 	lsl.w	ip, r3, lr
 8000248:	bf28      	it	cs
 800024a:	f04c 0c02 	orrcs.w	ip, ip, #2
 800024e:	fa43 f305 	asr.w	r3, r3, r5
 8000252:	18c0      	adds	r0, r0, r3
 8000254:	eb51 71e3 	adcs.w	r1, r1, r3, asr #31
 8000258:	f001 4500 	and.w	r5, r1, #2147483648	; 0x80000000
 800025c:	d507      	bpl.n	800026e <__adddf3+0xe6>
 800025e:	f04f 0e00 	mov.w	lr, #0
 8000262:	f1dc 0c00 	rsbs	ip, ip, #0
 8000266:	eb7e 0000 	sbcs.w	r0, lr, r0
 800026a:	eb6e 0101 	sbc.w	r1, lr, r1
 800026e:	f5b1 1f80 	cmp.w	r1, #1048576	; 0x100000
 8000272:	d31b      	bcc.n	80002ac <__adddf3+0x124>
 8000274:	f5b1 1f00 	cmp.w	r1, #2097152	; 0x200000
 8000278:	d30c      	bcc.n	8000294 <__adddf3+0x10c>
 800027a:	0849      	lsrs	r1, r1, #1
 800027c:	ea5f 0030 	movs.w	r0, r0, rrx
 8000280:	ea4f 0c3c 	mov.w	ip, ip, rrx
 8000284:	f104 0401 	add.w	r4, r4, #1
 8000288:	ea4f 5244 	mov.w	r2, r4, lsl #21
 800028c:	f512 0f80 	cmn.w	r2, #4194304	; 0x400000
 8000290:	f080 809a 	bcs.w	80003c8 <__adddf3+0x240>
 8000294:	f1bc 4f00 	cmp.w	ip, #2147483648	; 0x80000000
 8000298:	bf08      	it	eq
 800029a:	ea5f 0c50 	movseq.w	ip, r0, lsr #1
 800029e:	f150 0000 	adcs.w	r0, r0, #0
 80002a2:	eb41 5104 	adc.w	r1, r1, r4, lsl #20
 80002a6:	ea41 0105 	orr.w	r1, r1, r5
 80002aa:	bd30      	pop	{r4, r5, pc}
 80002ac:	ea5f 0c4c 	movs.w	ip, ip, lsl #1
 80002b0:	4140      	adcs	r0, r0
 80002b2:	eb41 0101 	adc.w	r1, r1, r1
 80002b6:	f411 1f80 	tst.w	r1, #1048576	; 0x100000
 80002ba:	f1a4 0401 	sub.w	r4, r4, #1
 80002be:	d1e9      	bne.n	8000294 <__adddf3+0x10c>
 80002c0:	f091 0f00 	teq	r1, #0
 80002c4:	bf04      	itt	eq
 80002c6:	4601      	moveq	r1, r0
 80002c8:	2000      	moveq	r0, #0
 80002ca:	fab1 f381 	clz	r3, r1
 80002ce:	bf08      	it	eq
 80002d0:	3320      	addeq	r3, #32
 80002d2:	f1a3 030b 	sub.w	r3, r3, #11
 80002d6:	f1b3 0220 	subs.w	r2, r3, #32
 80002da:	da0c      	bge.n	80002f6 <__adddf3+0x16e>
 80002dc:	320c      	adds	r2, #12
 80002de:	dd08      	ble.n	80002f2 <__adddf3+0x16a>
 80002e0:	f102 0c14 	add.w	ip, r2, #20
 80002e4:	f1c2 020c 	rsb	r2, r2, #12
 80002e8:	fa01 f00c 	lsl.w	r0, r1, ip
 80002ec:	fa21 f102 	lsr.w	r1, r1, r2
 80002f0:	e00c      	b.n	800030c <__adddf3+0x184>
 80002f2:	f102 0214 	add.w	r2, r2, #20
 80002f6:	bfd8      	it	le
 80002f8:	f1c2 0c20 	rsble	ip, r2, #32
 80002fc:	fa01 f102 	lsl.w	r1, r1, r2
 8000300:	fa20 fc0c 	lsr.w	ip, r0, ip
 8000304:	bfdc      	itt	le
 8000306:	ea41 010c 	orrle.w	r1, r1, ip
 800030a:	4090      	lslle	r0, r2
 800030c:	1ae4      	subs	r4, r4, r3
 800030e:	bfa2      	ittt	ge
 8000310:	eb01 5104 	addge.w	r1, r1, r4, lsl #20
 8000314:	4329      	orrge	r1, r5
 8000316:	bd30      	popge	{r4, r5, pc}
 8000318:	ea6f 0404 	mvn.w	r4, r4
 800031c:	3c1f      	subs	r4, #31
 800031e:	da1c      	bge.n	800035a <__adddf3+0x1d2>
 8000320:	340c      	adds	r4, #12
 8000322:	dc0e      	bgt.n	8000342 <__adddf3+0x1ba>
 8000324:	f104 0414 	add.w	r4, r4, #20
 8000328:	f1c4 0220 	rsb	r2, r4, #32
 800032c:	fa20 f004 	lsr.w	r0, r0, r4
 8000330:	fa01 f302 	lsl.w	r3, r1, r2
 8000334:	ea40 0003 	orr.w	r0, r0, r3
 8000338:	fa21 f304 	lsr.w	r3, r1, r4
 800033c:	ea45 0103 	orr.w	r1, r5, r3
 8000340:	bd30      	pop	{r4, r5, pc}
 8000342:	f1c4 040c 	rsb	r4, r4, #12
 8000346:	f1c4 0220 	rsb	r2, r4, #32
 800034a:	fa20 f002 	lsr.w	r0, r0, r2
 800034e:	fa01 f304 	lsl.w	r3, r1, r4
 8000352:	ea40 0003 	orr.w	r0, r0, r3
 8000356:	4629      	mov	r1, r5
 8000358:	bd30      	pop	{r4, r5, pc}
 800035a:	fa21 f004 	lsr.w	r0, r1, r4
 800035e:	4629      	mov	r1, r5
 8000360:	bd30      	pop	{r4, r5, pc}
 8000362:	f094 0f00 	teq	r4, #0
 8000366:	f483 1380 	eor.w	r3, r3, #1048576	; 0x100000
 800036a:	bf06      	itte	eq
 800036c:	f481 1180 	eoreq.w	r1, r1, #1048576	; 0x100000
 8000370:	3401      	addeq	r4, #1
 8000372:	3d01      	subne	r5, #1
 8000374:	e74e      	b.n	8000214 <__adddf3+0x8c>
 8000376:	ea7f 5c64 	mvns.w	ip, r4, asr #21
 800037a:	bf18      	it	ne
 800037c:	ea7f 5c65 	mvnsne.w	ip, r5, asr #21
 8000380:	d029      	beq.n	80003d6 <__adddf3+0x24e>
 8000382:	ea94 0f05 	teq	r4, r5
 8000386:	bf08      	it	eq
 8000388:	ea90 0f02 	teqeq	r0, r2
 800038c:	d005      	beq.n	800039a <__adddf3+0x212>
 800038e:	ea54 0c00 	orrs.w	ip, r4, r0
 8000392:	bf04      	itt	eq
 8000394:	4619      	moveq	r1, r3
 8000396:	4610      	moveq	r0, r2
 8000398:	bd30      	pop	{r4, r5, pc}
 800039a:	ea91 0f03 	teq	r1, r3
 800039e:	bf1e      	ittt	ne
 80003a0:	2100      	movne	r1, #0
 80003a2:	2000      	movne	r0, #0
 80003a4:	bd30      	popne	{r4, r5, pc}
 80003a6:	ea5f 5c54 	movs.w	ip, r4, lsr #21
 80003aa:	d105      	bne.n	80003b8 <__adddf3+0x230>
 80003ac:	0040      	lsls	r0, r0, #1
 80003ae:	4149      	adcs	r1, r1
 80003b0:	bf28      	it	cs
 80003b2:	f041 4100 	orrcs.w	r1, r1, #2147483648	; 0x80000000
 80003b6:	bd30      	pop	{r4, r5, pc}
 80003b8:	f514 0480 	adds.w	r4, r4, #4194304	; 0x400000
 80003bc:	bf3c      	itt	cc
 80003be:	f501 1180 	addcc.w	r1, r1, #1048576	; 0x100000
 80003c2:	bd30      	popcc	{r4, r5, pc}
 80003c4:	f001 4500 	and.w	r5, r1, #2147483648	; 0x80000000
 80003c8:	f045 41fe 	orr.w	r1, r5, #2130706432	; 0x7f000000
 80003cc:	f441 0170 	orr.w	r1, r1, #15728640	; 0xf00000
 80003d0:	f04f 0000 	mov.w	r0, #0
 80003d4:	bd30      	pop	{r4, r5, pc}
 80003d6:	ea7f 5c64 	mvns.w	ip, r4, asr #21
 80003da:	bf1a      	itte	ne
 80003dc:	4619      	movne	r1, r3
 80003de:	4610      	movne	r0, r2
 80003e0:	ea7f 5c65 	mvnseq.w	ip, r5, asr #21
 80003e4:	bf1c      	itt	ne
 80003e6:	460b      	movne	r3, r1
 80003e8:	4602      	movne	r2, r0
 80003ea:	ea50 3401 	orrs.w	r4, r0, r1, lsl #12
 80003ee:	bf06      	itte	eq
 80003f0:	ea52 3503 	orrseq.w	r5, r2, r3, lsl #12
 80003f4:	ea91 0f03 	teqeq	r1, r3
 80003f8:	f441 2100 	orrne.w	r1, r1, #524288	; 0x80000
 80003fc:	bd30      	pop	{r4, r5, pc}
 80003fe:	bf00      	nop

08000400 <__aeabi_ui2d>:
 8000400:	f090 0f00 	teq	r0, #0
 8000404:	bf04      	itt	eq
 8000406:	2100      	moveq	r1, #0
 8000408:	4770      	bxeq	lr
 800040a:	b530      	push	{r4, r5, lr}
 800040c:	f44f 6480 	mov.w	r4, #1024	; 0x400
 8000410:	f104 0432 	add.w	r4, r4, #50	; 0x32
 8000414:	f04f 0500 	mov.w	r5, #0
 8000418:	f04f 0100 	mov.w	r1, #0
 800041c:	e750      	b.n	80002c0 <__adddf3+0x138>
 800041e:	bf00      	nop

08000420 <__aeabi_i2d>:
 8000420:	f090 0f00 	teq	r0, #0
 8000424:	bf04      	itt	eq
 8000426:	2100      	moveq	r1, #0
 8000428:	4770      	bxeq	lr
 800042a:	b530      	push	{r4, r5, lr}
 800042c:	f44f 6480 	mov.w	r4, #1024	; 0x400
 8000430:	f104 0432 	add.w	r4, r4, #50	; 0x32
 8000434:	f010 4500 	ands.w	r5, r0, #2147483648	; 0x80000000
 8000438:	bf48      	it	mi
 800043a:	4240      	negmi	r0, r0
 800043c:	f04f 0100 	mov.w	r1, #0
 8000440:	e73e      	b.n	80002c0 <__adddf3+0x138>
 8000442:	bf00      	nop

08000444 <__aeabi_f2d>:
 8000444:	0042      	lsls	r2, r0, #1
 8000446:	ea4f 01e2 	mov.w	r1, r2, asr #3
 800044a:	ea4f 0131 	mov.w	r1, r1, rrx
 800044e:	ea4f 7002 	mov.w	r0, r2, lsl #28
 8000452:	bf1f      	itttt	ne
 8000454:	f012 437f 	andsne.w	r3, r2, #4278190080	; 0xff000000
 8000458:	f093 4f7f 	teqne	r3, #4278190080	; 0xff000000
 800045c:	f081 5160 	eorne.w	r1, r1, #939524096	; 0x38000000
 8000460:	4770      	bxne	lr
 8000462:	f032 427f 	bics.w	r2, r2, #4278190080	; 0xff000000
 8000466:	bf08      	it	eq
 8000468:	4770      	bxeq	lr
 800046a:	f093 4f7f 	teq	r3, #4278190080	; 0xff000000
 800046e:	bf04      	itt	eq
 8000470:	f441 2100 	orreq.w	r1, r1, #524288	; 0x80000
 8000474:	4770      	bxeq	lr
 8000476:	b530      	push	{r4, r5, lr}
 8000478:	f44f 7460 	mov.w	r4, #896	; 0x380
 800047c:	f001 4500 	and.w	r5, r1, #2147483648	; 0x80000000
 8000480:	f021 4100 	bic.w	r1, r1, #2147483648	; 0x80000000
 8000484:	e71c      	b.n	80002c0 <__adddf3+0x138>
 8000486:	bf00      	nop

08000488 <__aeabi_ul2d>:
 8000488:	ea50 0201 	orrs.w	r2, r0, r1
 800048c:	bf08      	it	eq
 800048e:	4770      	bxeq	lr
 8000490:	b530      	push	{r4, r5, lr}
 8000492:	f04f 0500 	mov.w	r5, #0
 8000496:	e00a      	b.n	80004ae <__aeabi_l2d+0x16>

08000498 <__aeabi_l2d>:
 8000498:	ea50 0201 	orrs.w	r2, r0, r1
 800049c:	bf08      	it	eq
 800049e:	4770      	bxeq	lr
 80004a0:	b530      	push	{r4, r5, lr}
 80004a2:	f011 4500 	ands.w	r5, r1, #2147483648	; 0x80000000
 80004a6:	d502      	bpl.n	80004ae <__aeabi_l2d+0x16>
 80004a8:	4240      	negs	r0, r0
 80004aa:	eb61 0141 	sbc.w	r1, r1, r1, lsl #1
 80004ae:	f44f 6480 	mov.w	r4, #1024	; 0x400
 80004b2:	f104 0432 	add.w	r4, r4, #50	; 0x32
 80004b6:	ea5f 5c91 	movs.w	ip, r1, lsr #22
 80004ba:	f43f aed8 	beq.w	800026e <__adddf3+0xe6>
 80004be:	f04f 0203 	mov.w	r2, #3
 80004c2:	ea5f 0cdc 	movs.w	ip, ip, lsr #3
 80004c6:	bf18      	it	ne
 80004c8:	3203      	addne	r2, #3
 80004ca:	ea5f 0cdc 	movs.w	ip, ip, lsr #3
 80004ce:	bf18      	it	ne
 80004d0:	3203      	addne	r2, #3
 80004d2:	eb02 02dc 	add.w	r2, r2, ip, lsr #3
 80004d6:	f1c2 0320 	rsb	r3, r2, #32
 80004da:	fa00 fc03 	lsl.w	ip, r0, r3
 80004de:	fa20 f002 	lsr.w	r0, r0, r2
 80004e2:	fa01 fe03 	lsl.w	lr, r1, r3
 80004e6:	ea40 000e 	orr.w	r0, r0, lr
 80004ea:	fa21 f102 	lsr.w	r1, r1, r2
 80004ee:	4414      	add	r4, r2
 80004f0:	e6bd      	b.n	800026e <__adddf3+0xe6>
 80004f2:	bf00      	nop

080004f4 <__aeabi_d2f>:
 80004f4:	ea4f 0241 	mov.w	r2, r1, lsl #1
 80004f8:	f1b2 43e0 	subs.w	r3, r2, #1879048192	; 0x70000000
 80004fc:	bf24      	itt	cs
 80004fe:	f5b3 1c00 	subscs.w	ip, r3, #2097152	; 0x200000
 8000502:	f1dc 5cfe 	rsbscs	ip, ip, #532676608	; 0x1fc00000
 8000506:	d90d      	bls.n	8000524 <__aeabi_d2f+0x30>
 8000508:	f001 4c00 	and.w	ip, r1, #2147483648	; 0x80000000
 800050c:	ea4f 02c0 	mov.w	r2, r0, lsl #3
 8000510:	ea4c 7050 	orr.w	r0, ip, r0, lsr #29
 8000514:	f1b2 4f00 	cmp.w	r2, #2147483648	; 0x80000000
 8000518:	eb40 0083 	adc.w	r0, r0, r3, lsl #2
 800051c:	bf08      	it	eq
 800051e:	f020 0001 	biceq.w	r0, r0, #1
 8000522:	4770      	bx	lr
 8000524:	f011 4f80 	tst.w	r1, #1073741824	; 0x40000000
 8000528:	d121      	bne.n	800056e <__aeabi_d2f+0x7a>
 800052a:	f113 7238 	adds.w	r2, r3, #48234496	; 0x2e00000
 800052e:	bfbc      	itt	lt
 8000530:	f001 4000 	andlt.w	r0, r1, #2147483648	; 0x80000000
 8000534:	4770      	bxlt	lr
 8000536:	f441 1180 	orr.w	r1, r1, #1048576	; 0x100000
 800053a:	ea4f 5252 	mov.w	r2, r2, lsr #21
 800053e:	f1c2 0218 	rsb	r2, r2, #24
 8000542:	f1c2 0c20 	rsb	ip, r2, #32
 8000546:	fa10 f30c 	lsls.w	r3, r0, ip
 800054a:	fa20 f002 	lsr.w	r0, r0, r2
 800054e:	bf18      	it	ne
 8000550:	f040 0001 	orrne.w	r0, r0, #1
 8000554:	ea4f 23c1 	mov.w	r3, r1, lsl #11
 8000558:	ea4f 23d3 	mov.w	r3, r3, lsr #11
 800055c:	fa03 fc0c 	lsl.w	ip, r3, ip
 8000560:	ea40 000c 	orr.w	r0, r0, ip
 8000564:	fa23 f302 	lsr.w	r3, r3, r2
 8000568:	ea4f 0343 	mov.w	r3, r3, lsl #1
 800056c:	e7cc      	b.n	8000508 <__aeabi_d2f+0x14>
 800056e:	ea7f 5362 	mvns.w	r3, r2, asr #21
 8000572:	d107      	bne.n	8000584 <__aeabi_d2f+0x90>
 8000574:	ea50 3301 	orrs.w	r3, r0, r1, lsl #12
 8000578:	bf1e      	ittt	ne
 800057a:	f04f 40fe 	movne.w	r0, #2130706432	; 0x7f000000
 800057e:	f440 0040 	orrne.w	r0, r0, #12582912	; 0xc00000
 8000582:	4770      	bxne	lr
 8000584:	f001 4000 	and.w	r0, r1, #2147483648	; 0x80000000
 8000588:	f040 40fe 	orr.w	r0, r0, #2130706432	; 0x7f000000
 800058c:	f440 0000 	orr.w	r0, r0, #8388608	; 0x800000
 8000590:	4770      	bx	lr
 8000592:	bf00      	nop

08000594 <__aeabi_frsub>:
 8000594:	f080 4000 	eor.w	r0, r0, #2147483648	; 0x80000000
 8000598:	e002      	b.n	80005a0 <__addsf3>
 800059a:	bf00      	nop

0800059c <__aeabi_fsub>:
 800059c:	f081 4100 	eor.w	r1, r1, #2147483648	; 0x80000000

080005a0 <__addsf3>:
 80005a0:	0042      	lsls	r2, r0, #1
 80005a2:	bf1f      	itttt	ne
 80005a4:	ea5f 0341 	movsne.w	r3, r1, lsl #1
 80005a8:	ea92 0f03 	teqne	r2, r3
 80005ac:	ea7f 6c22 	mvnsne.w	ip, r2, asr #24
 80005b0:	ea7f 6c23 	mvnsne.w	ip, r3, asr #24
 80005b4:	d06a      	beq.n	800068c <__addsf3+0xec>
 80005b6:	ea4f 6212 	mov.w	r2, r2, lsr #24
 80005ba:	ebd2 6313 	rsbs	r3, r2, r3, lsr #24
 80005be:	bfc1      	itttt	gt
 80005c0:	18d2      	addgt	r2, r2, r3
 80005c2:	4041      	eorgt	r1, r0
 80005c4:	4048      	eorgt	r0, r1
 80005c6:	4041      	eorgt	r1, r0
 80005c8:	bfb8      	it	lt
 80005ca:	425b      	neglt	r3, r3
 80005cc:	2b19      	cmp	r3, #25
 80005ce:	bf88      	it	hi
 80005d0:	4770      	bxhi	lr
 80005d2:	f010 4f00 	tst.w	r0, #2147483648	; 0x80000000
 80005d6:	f440 0000 	orr.w	r0, r0, #8388608	; 0x800000
 80005da:	f020 407f 	bic.w	r0, r0, #4278190080	; 0xff000000
 80005de:	bf18      	it	ne
 80005e0:	4240      	negne	r0, r0
 80005e2:	f011 4f00 	tst.w	r1, #2147483648	; 0x80000000
 80005e6:	f441 0100 	orr.w	r1, r1, #8388608	; 0x800000
 80005ea:	f021 417f 	bic.w	r1, r1, #4278190080	; 0xff000000
 80005ee:	bf18      	it	ne
 80005f0:	4249      	negne	r1, r1
 80005f2:	ea92 0f03 	teq	r2, r3
 80005f6:	d03f      	beq.n	8000678 <__addsf3+0xd8>
 80005f8:	f1a2 0201 	sub.w	r2, r2, #1
 80005fc:	fa41 fc03 	asr.w	ip, r1, r3
 8000600:	eb10 000c 	adds.w	r0, r0, ip
 8000604:	f1c3 0320 	rsb	r3, r3, #32
 8000608:	fa01 f103 	lsl.w	r1, r1, r3
 800060c:	f000 4300 	and.w	r3, r0, #2147483648	; 0x80000000
 8000610:	d502      	bpl.n	8000618 <__addsf3+0x78>
 8000612:	4249      	negs	r1, r1
 8000614:	eb60 0040 	sbc.w	r0, r0, r0, lsl #1
 8000618:	f5b0 0f00 	cmp.w	r0, #8388608	; 0x800000
 800061c:	d313      	bcc.n	8000646 <__addsf3+0xa6>
 800061e:	f1b0 7f80 	cmp.w	r0, #16777216	; 0x1000000
 8000622:	d306      	bcc.n	8000632 <__addsf3+0x92>
 8000624:	0840      	lsrs	r0, r0, #1
 8000626:	ea4f 0131 	mov.w	r1, r1, rrx
 800062a:	f102 0201 	add.w	r2, r2, #1
 800062e:	2afe      	cmp	r2, #254	; 0xfe
 8000630:	d251      	bcs.n	80006d6 <__addsf3+0x136>
 8000632:	f1b1 4f00 	cmp.w	r1, #2147483648	; 0x80000000
 8000636:	eb40 50c2 	adc.w	r0, r0, r2, lsl #23
 800063a:	bf08      	it	eq
 800063c:	f020 0001 	biceq.w	r0, r0, #1
 8000640:	ea40 0003 	orr.w	r0, r0, r3
 8000644:	4770      	bx	lr
 8000646:	0049      	lsls	r1, r1, #1
 8000648:	eb40 0000 	adc.w	r0, r0, r0
 800064c:	f410 0f00 	tst.w	r0, #8388608	; 0x800000
 8000650:	f1a2 0201 	sub.w	r2, r2, #1
 8000654:	d1ed      	bne.n	8000632 <__addsf3+0x92>
 8000656:	fab0 fc80 	clz	ip, r0
 800065a:	f1ac 0c08 	sub.w	ip, ip, #8
 800065e:	ebb2 020c 	subs.w	r2, r2, ip
 8000662:	fa00 f00c 	lsl.w	r0, r0, ip
 8000666:	bfaa      	itet	ge
 8000668:	eb00 50c2 	addge.w	r0, r0, r2, lsl #23
 800066c:	4252      	neglt	r2, r2
 800066e:	4318      	orrge	r0, r3
 8000670:	bfbc      	itt	lt
 8000672:	40d0      	lsrlt	r0, r2
 8000674:	4318      	orrlt	r0, r3
 8000676:	4770      	bx	lr
 8000678:	f092 0f00 	teq	r2, #0
 800067c:	f481 0100 	eor.w	r1, r1, #8388608	; 0x800000
 8000680:	bf06      	itte	eq
 8000682:	f480 0000 	eoreq.w	r0, r0, #8388608	; 0x800000
 8000686:	3201      	addeq	r2, #1
 8000688:	3b01      	subne	r3, #1
 800068a:	e7b5      	b.n	80005f8 <__addsf3+0x58>
 800068c:	ea4f 0341 	mov.w	r3, r1, lsl #1
 8000690:	ea7f 6c22 	mvns.w	ip, r2, asr #24
 8000694:	bf18      	it	ne
 8000696:	ea7f 6c23 	mvnsne.w	ip, r3, asr #24
 800069a:	d021      	beq.n	80006e0 <__addsf3+0x140>
 800069c:	ea92 0f03 	teq	r2, r3
 80006a0:	d004      	beq.n	80006ac <__addsf3+0x10c>
 80006a2:	f092 0f00 	teq	r2, #0
 80006a6:	bf08      	it	eq
 80006a8:	4608      	moveq	r0, r1
 80006aa:	4770      	bx	lr
 80006ac:	ea90 0f01 	teq	r0, r1
 80006b0:	bf1c      	itt	ne
 80006b2:	2000      	movne	r0, #0
 80006b4:	4770      	bxne	lr
 80006b6:	f012 4f7f 	tst.w	r2, #4278190080	; 0xff000000
 80006ba:	d104      	bne.n	80006c6 <__addsf3+0x126>
 80006bc:	0040      	lsls	r0, r0, #1
 80006be:	bf28      	it	cs
 80006c0:	f040 4000 	orrcs.w	r0, r0, #2147483648	; 0x80000000
 80006c4:	4770      	bx	lr
 80006c6:	f112 7200 	adds.w	r2, r2, #33554432	; 0x2000000
 80006ca:	bf3c      	itt	cc
 80006cc:	f500 0000 	addcc.w	r0, r0, #8388608	; 0x800000
 80006d0:	4770      	bxcc	lr
 80006d2:	f000 4300 	and.w	r3, r0, #2147483648	; 0x80000000
 80006d6:	f043 40fe 	orr.w	r0, r3, #2130706432	; 0x7f000000
 80006da:	f440 0000 	orr.w	r0, r0, #8388608	; 0x800000
 80006de:	4770      	bx	lr
 80006e0:	ea7f 6222 	mvns.w	r2, r2, asr #24
 80006e4:	bf16      	itet	ne
 80006e6:	4608      	movne	r0, r1
 80006e8:	ea7f 6323 	mvnseq.w	r3, r3, asr #24
 80006ec:	4601      	movne	r1, r0
 80006ee:	0242      	lsls	r2, r0, #9
 80006f0:	bf06      	itte	eq
 80006f2:	ea5f 2341 	movseq.w	r3, r1, lsl #9
 80006f6:	ea90 0f01 	teqeq	r0, r1
 80006fa:	f440 0080 	orrne.w	r0, r0, #4194304	; 0x400000
 80006fe:	4770      	bx	lr

08000700 <__aeabi_ui2f>:
 8000700:	f04f 0300 	mov.w	r3, #0
 8000704:	e004      	b.n	8000710 <__aeabi_i2f+0x8>
 8000706:	bf00      	nop

08000708 <__aeabi_i2f>:
 8000708:	f010 4300 	ands.w	r3, r0, #2147483648	; 0x80000000
 800070c:	bf48      	it	mi
 800070e:	4240      	negmi	r0, r0
 8000710:	ea5f 0c00 	movs.w	ip, r0
 8000714:	bf08      	it	eq
 8000716:	4770      	bxeq	lr
 8000718:	f043 4396 	orr.w	r3, r3, #1258291200	; 0x4b000000
 800071c:	4601      	mov	r1, r0
 800071e:	f04f 0000 	mov.w	r0, #0
 8000722:	e01c      	b.n	800075e <__aeabi_l2f+0x2a>

08000724 <__aeabi_ul2f>:
 8000724:	ea50 0201 	orrs.w	r2, r0, r1
 8000728:	bf08      	it	eq
 800072a:	4770      	bxeq	lr
 800072c:	f04f 0300 	mov.w	r3, #0
 8000730:	e00a      	b.n	8000748 <__aeabi_l2f+0x14>
 8000732:	bf00      	nop

08000734 <__aeabi_l2f>:
 8000734:	ea50 0201 	orrs.w	r2, r0, r1
 8000738:	bf08      	it	eq
 800073a:	4770      	bxeq	lr
 800073c:	f011 4300 	ands.w	r3, r1, #2147483648	; 0x80000000
 8000740:	d502      	bpl.n	8000748 <__aeabi_l2f+0x14>
 8000742:	4240      	negs	r0, r0
 8000744:	eb61 0141 	sbc.w	r1, r1, r1, lsl #1
 8000748:	ea5f 0c01 	movs.w	ip, r1
 800074c:	bf02      	ittt	eq
 800074e:	4684      	moveq	ip, r0
 8000750:	4601      	moveq	r1, r0
 8000752:	2000      	moveq	r0, #0
 8000754:	f043 43b6 	orr.w	r3, r3, #1526726656	; 0x5b000000
 8000758:	bf08      	it	eq
 800075a:	f1a3 5380 	subeq.w	r3, r3, #268435456	; 0x10000000
 800075e:	f5a3 0300 	sub.w	r3, r3, #8388608	; 0x800000
 8000762:	fabc f28c 	clz	r2, ip
 8000766:	3a08      	subs	r2, #8
 8000768:	eba3 53c2 	sub.w	r3, r3, r2, lsl #23
 800076c:	db10      	blt.n	8000790 <__aeabi_l2f+0x5c>
 800076e:	fa01 fc02 	lsl.w	ip, r1, r2
 8000772:	4463      	add	r3, ip
 8000774:	fa00 fc02 	lsl.w	ip, r0, r2
 8000778:	f1c2 0220 	rsb	r2, r2, #32
 800077c:	f1bc 4f00 	cmp.w	ip, #2147483648	; 0x80000000
 8000780:	fa20 f202 	lsr.w	r2, r0, r2
 8000784:	eb43 0002 	adc.w	r0, r3, r2
 8000788:	bf08      	it	eq
 800078a:	f020 0001 	biceq.w	r0, r0, #1
 800078e:	4770      	bx	lr
 8000790:	f102 0220 	add.w	r2, r2, #32
 8000794:	fa01 fc02 	lsl.w	ip, r1, r2
 8000798:	f1c2 0220 	rsb	r2, r2, #32
 800079c:	ea50 004c 	orrs.w	r0, r0, ip, lsl #1
 80007a0:	fa21 f202 	lsr.w	r2, r1, r2
 80007a4:	eb43 0002 	adc.w	r0, r3, r2
 80007a8:	bf08      	it	eq
 80007aa:	ea20 70dc 	biceq.w	r0, r0, ip, lsr #31
 80007ae:	4770      	bx	lr

080007b0 <__aeabi_fmul>:
 80007b0:	f04f 0cff 	mov.w	ip, #255	; 0xff
 80007b4:	ea1c 52d0 	ands.w	r2, ip, r0, lsr #23
 80007b8:	bf1e      	ittt	ne
 80007ba:	ea1c 53d1 	andsne.w	r3, ip, r1, lsr #23
 80007be:	ea92 0f0c 	teqne	r2, ip
 80007c2:	ea93 0f0c 	teqne	r3, ip
 80007c6:	d06f      	beq.n	80008a8 <__aeabi_fmul+0xf8>
 80007c8:	441a      	add	r2, r3
 80007ca:	ea80 0c01 	eor.w	ip, r0, r1
 80007ce:	0240      	lsls	r0, r0, #9
 80007d0:	bf18      	it	ne
 80007d2:	ea5f 2141 	movsne.w	r1, r1, lsl #9
 80007d6:	d01e      	beq.n	8000816 <__aeabi_fmul+0x66>
 80007d8:	f04f 6300 	mov.w	r3, #134217728	; 0x8000000
 80007dc:	ea43 1050 	orr.w	r0, r3, r0, lsr #5
 80007e0:	ea43 1151 	orr.w	r1, r3, r1, lsr #5
 80007e4:	fba0 3101 	umull	r3, r1, r0, r1
 80007e8:	f00c 4000 	and.w	r0, ip, #2147483648	; 0x80000000
 80007ec:	f5b1 0f00 	cmp.w	r1, #8388608	; 0x800000
 80007f0:	bf3e      	ittt	cc
 80007f2:	0049      	lslcc	r1, r1, #1
 80007f4:	ea41 71d3 	orrcc.w	r1, r1, r3, lsr #31
 80007f8:	005b      	lslcc	r3, r3, #1
 80007fa:	ea40 0001 	orr.w	r0, r0, r1
 80007fe:	f162 027f 	sbc.w	r2, r2, #127	; 0x7f
 8000802:	2afd      	cmp	r2, #253	; 0xfd
 8000804:	d81d      	bhi.n	8000842 <__aeabi_fmul+0x92>
 8000806:	f1b3 4f00 	cmp.w	r3, #2147483648	; 0x80000000
 800080a:	eb40 50c2 	adc.w	r0, r0, r2, lsl #23
 800080e:	bf08      	it	eq
 8000810:	f020 0001 	biceq.w	r0, r0, #1
 8000814:	4770      	bx	lr
 8000816:	f090 0f00 	teq	r0, #0
 800081a:	f00c 4c00 	and.w	ip, ip, #2147483648	; 0x80000000
 800081e:	bf08      	it	eq
 8000820:	0249      	lsleq	r1, r1, #9
 8000822:	ea4c 2050 	orr.w	r0, ip, r0, lsr #9
 8000826:	ea40 2051 	orr.w	r0, r0, r1, lsr #9
 800082a:	3a7f      	subs	r2, #127	; 0x7f
 800082c:	bfc2      	ittt	gt
 800082e:	f1d2 03ff 	rsbsgt	r3, r2, #255	; 0xff
 8000832:	ea40 50c2 	orrgt.w	r0, r0, r2, lsl #23
 8000836:	4770      	bxgt	lr
 8000838:	f440 0000 	orr.w	r0, r0, #8388608	; 0x800000
 800083c:	f04f 0300 	mov.w	r3, #0
 8000840:	3a01      	subs	r2, #1
 8000842:	dc5d      	bgt.n	8000900 <__aeabi_fmul+0x150>
 8000844:	f112 0f19 	cmn.w	r2, #25
 8000848:	bfdc      	itt	le
 800084a:	f000 4000 	andle.w	r0, r0, #2147483648	; 0x80000000
 800084e:	4770      	bxle	lr
 8000850:	f1c2 0200 	rsb	r2, r2, #0
 8000854:	0041      	lsls	r1, r0, #1
 8000856:	fa21 f102 	lsr.w	r1, r1, r2
 800085a:	f1c2 0220 	rsb	r2, r2, #32
 800085e:	fa00 fc02 	lsl.w	ip, r0, r2
 8000862:	ea5f 0031 	movs.w	r0, r1, rrx
 8000866:	f140 0000 	adc.w	r0, r0, #0
 800086a:	ea53 034c 	orrs.w	r3, r3, ip, lsl #1
 800086e:	bf08      	it	eq
 8000870:	ea20 70dc 	biceq.w	r0, r0, ip, lsr #31
 8000874:	4770      	bx	lr
 8000876:	f092 0f00 	teq	r2, #0
 800087a:	f000 4c00 	and.w	ip, r0, #2147483648	; 0x80000000
 800087e:	bf02      	ittt	eq
 8000880:	0040      	lsleq	r0, r0, #1
 8000882:	f410 0f00 	tsteq.w	r0, #8388608	; 0x800000
 8000886:	3a01      	subeq	r2, #1
 8000888:	d0f9      	beq.n	800087e <__aeabi_fmul+0xce>
 800088a:	ea40 000c 	orr.w	r0, r0, ip
 800088e:	f093 0f00 	teq	r3, #0
 8000892:	f001 4c00 	and.w	ip, r1, #2147483648	; 0x80000000
 8000896:	bf02      	ittt	eq
 8000898:	0049      	lsleq	r1, r1, #1
 800089a:	f411 0f00 	tsteq.w	r1, #8388608	; 0x800000
 800089e:	3b01      	subeq	r3, #1
 80008a0:	d0f9      	beq.n	8000896 <__aeabi_fmul+0xe6>
 80008a2:	ea41 010c 	orr.w	r1, r1, ip
 80008a6:	e78f      	b.n	80007c8 <__aeabi_fmul+0x18>
 80008a8:	ea0c 53d1 	and.w	r3, ip, r1, lsr #23
 80008ac:	ea92 0f0c 	teq	r2, ip
 80008b0:	bf18      	it	ne
 80008b2:	ea93 0f0c 	teqne	r3, ip
 80008b6:	d00a      	beq.n	80008ce <__aeabi_fmul+0x11e>
 80008b8:	f030 4c00 	bics.w	ip, r0, #2147483648	; 0x80000000
 80008bc:	bf18      	it	ne
 80008be:	f031 4c00 	bicsne.w	ip, r1, #2147483648	; 0x80000000
 80008c2:	d1d8      	bne.n	8000876 <__aeabi_fmul+0xc6>
 80008c4:	ea80 0001 	eor.w	r0, r0, r1
 80008c8:	f000 4000 	and.w	r0, r0, #2147483648	; 0x80000000
 80008cc:	4770      	bx	lr
 80008ce:	f090 0f00 	teq	r0, #0
 80008d2:	bf17      	itett	ne
 80008d4:	f090 4f00 	teqne	r0, #2147483648	; 0x80000000
 80008d8:	4608      	moveq	r0, r1
 80008da:	f091 0f00 	teqne	r1, #0
 80008de:	f091 4f00 	teqne	r1, #2147483648	; 0x80000000
 80008e2:	d014      	beq.n	800090e <__aeabi_fmul+0x15e>
 80008e4:	ea92 0f0c 	teq	r2, ip
 80008e8:	d101      	bne.n	80008ee <__aeabi_fmul+0x13e>
 80008ea:	0242      	lsls	r2, r0, #9
 80008ec:	d10f      	bne.n	800090e <__aeabi_fmul+0x15e>
 80008ee:	ea93 0f0c 	teq	r3, ip
 80008f2:	d103      	bne.n	80008fc <__aeabi_fmul+0x14c>
 80008f4:	024b      	lsls	r3, r1, #9
 80008f6:	bf18      	it	ne
 80008f8:	4608      	movne	r0, r1
 80008fa:	d108      	bne.n	800090e <__aeabi_fmul+0x15e>
 80008fc:	ea80 0001 	eor.w	r0, r0, r1
 8000900:	f000 4000 	and.w	r0, r0, #2147483648	; 0x80000000
 8000904:	f040 40fe 	orr.w	r0, r0, #2130706432	; 0x7f000000
 8000908:	f440 0000 	orr.w	r0, r0, #8388608	; 0x800000
 800090c:	4770      	bx	lr
 800090e:	f040 40fe 	orr.w	r0, r0, #2130706432	; 0x7f000000
 8000912:	f440 0040 	orr.w	r0, r0, #12582912	; 0xc00000
 8000916:	4770      	bx	lr

08000918 <__aeabi_fdiv>:
 8000918:	f04f 0cff 	mov.w	ip, #255	; 0xff
 800091c:	ea1c 52d0 	ands.w	r2, ip, r0, lsr #23
 8000920:	bf1e      	ittt	ne
 8000922:	ea1c 53d1 	andsne.w	r3, ip, r1, lsr #23
 8000926:	ea92 0f0c 	teqne	r2, ip
 800092a:	ea93 0f0c 	teqne	r3, ip
 800092e:	d069      	beq.n	8000a04 <__aeabi_fdiv+0xec>
 8000930:	eba2 0203 	sub.w	r2, r2, r3
 8000934:	ea80 0c01 	eor.w	ip, r0, r1
 8000938:	0249      	lsls	r1, r1, #9
 800093a:	ea4f 2040 	mov.w	r0, r0, lsl #9
 800093e:	d037      	beq.n	80009b0 <__aeabi_fdiv+0x98>
 8000940:	f04f 5380 	mov.w	r3, #268435456	; 0x10000000
 8000944:	ea43 1111 	orr.w	r1, r3, r1, lsr #4
 8000948:	ea43 1310 	orr.w	r3, r3, r0, lsr #4
 800094c:	f00c 4000 	and.w	r0, ip, #2147483648	; 0x80000000
 8000950:	428b      	cmp	r3, r1
 8000952:	bf38      	it	cc
 8000954:	005b      	lslcc	r3, r3, #1
 8000956:	f142 027d 	adc.w	r2, r2, #125	; 0x7d
 800095a:	f44f 0c00 	mov.w	ip, #8388608	; 0x800000
 800095e:	428b      	cmp	r3, r1
 8000960:	bf24      	itt	cs
 8000962:	1a5b      	subcs	r3, r3, r1
 8000964:	ea40 000c 	orrcs.w	r0, r0, ip
 8000968:	ebb3 0f51 	cmp.w	r3, r1, lsr #1
 800096c:	bf24      	itt	cs
 800096e:	eba3 0351 	subcs.w	r3, r3, r1, lsr #1
 8000972:	ea40 005c 	orrcs.w	r0, r0, ip, lsr #1
 8000976:	ebb3 0f91 	cmp.w	r3, r1, lsr #2
 800097a:	bf24      	itt	cs
 800097c:	eba3 0391 	subcs.w	r3, r3, r1, lsr #2
 8000980:	ea40 009c 	orrcs.w	r0, r0, ip, lsr #2
 8000984:	ebb3 0fd1 	cmp.w	r3, r1, lsr #3
 8000988:	bf24      	itt	cs
 800098a:	eba3 03d1 	subcs.w	r3, r3, r1, lsr #3
 800098e:	ea40 00dc 	orrcs.w	r0, r0, ip, lsr #3
 8000992:	011b      	lsls	r3, r3, #4
 8000994:	bf18      	it	ne
 8000996:	ea5f 1c1c 	movsne.w	ip, ip, lsr #4
 800099a:	d1e0      	bne.n	800095e <__aeabi_fdiv+0x46>
 800099c:	2afd      	cmp	r2, #253	; 0xfd
 800099e:	f63f af50 	bhi.w	8000842 <__aeabi_fmul+0x92>
 80009a2:	428b      	cmp	r3, r1
 80009a4:	eb40 50c2 	adc.w	r0, r0, r2, lsl #23
 80009a8:	bf08      	it	eq
 80009aa:	f020 0001 	biceq.w	r0, r0, #1
 80009ae:	4770      	bx	lr
 80009b0:	f00c 4c00 	and.w	ip, ip, #2147483648	; 0x80000000
 80009b4:	ea4c 2050 	orr.w	r0, ip, r0, lsr #9
 80009b8:	327f      	adds	r2, #127	; 0x7f
 80009ba:	bfc2      	ittt	gt
 80009bc:	f1d2 03ff 	rsbsgt	r3, r2, #255	; 0xff
 80009c0:	ea40 50c2 	orrgt.w	r0, r0, r2, lsl #23
 80009c4:	4770      	bxgt	lr
 80009c6:	f440 0000 	orr.w	r0, r0, #8388608	; 0x800000
 80009ca:	f04f 0300 	mov.w	r3, #0
 80009ce:	3a01      	subs	r2, #1
 80009d0:	e737      	b.n	8000842 <__aeabi_fmul+0x92>
 80009d2:	f092 0f00 	teq	r2, #0
 80009d6:	f000 4c00 	and.w	ip, r0, #2147483648	; 0x80000000
 80009da:	bf02      	ittt	eq
 80009dc:	0040      	lsleq	r0, r0, #1
 80009de:	f410 0f00 	tsteq.w	r0, #8388608	; 0x800000
 80009e2:	3a01      	subeq	r2, #1
 80009e4:	d0f9      	beq.n	80009da <__aeabi_fdiv+0xc2>
 80009e6:	ea40 000c 	orr.w	r0, r0, ip
 80009ea:	f093 0f00 	teq	r3, #0
 80009ee:	f001 4c00 	and.w	ip, r1, #2147483648	; 0x80000000
 80009f2:	bf02      	ittt	eq
 80009f4:	0049      	lsleq	r1, r1, #1
 80009f6:	f411 0f00 	tsteq.w	r1, #8388608	; 0x800000
 80009fa:	3b01      	subeq	r3, #1
 80009fc:	d0f9      	beq.n	80009f2 <__aeabi_fdiv+0xda>
 80009fe:	ea41 010c 	orr.w	r1, r1, ip
 8000a02:	e795      	b.n	8000930 <__aeabi_fdiv+0x18>
 8000a04:	ea0c 53d1 	and.w	r3, ip, r1, lsr #23
 8000a08:	ea92 0f0c 	teq	r2, ip
 8000a0c:	d108      	bne.n	8000a20 <__aeabi_fdiv+0x108>
 8000a0e:	0242      	lsls	r2, r0, #9
 8000a10:	f47f af7d 	bne.w	800090e <__aeabi_fmul+0x15e>
 8000a14:	ea93 0f0c 	teq	r3, ip
 8000a18:	f47f af70 	bne.w	80008fc <__aeabi_fmul+0x14c>
 8000a1c:	4608      	mov	r0, r1
 8000a1e:	e776      	b.n	800090e <__aeabi_fmul+0x15e>
 8000a20:	ea93 0f0c 	teq	r3, ip
 8000a24:	d104      	bne.n	8000a30 <__aeabi_fdiv+0x118>
 8000a26:	024b      	lsls	r3, r1, #9
 8000a28:	f43f af4c 	beq.w	80008c4 <__aeabi_fmul+0x114>
 8000a2c:	4608      	mov	r0, r1
 8000a2e:	e76e      	b.n	800090e <__aeabi_fmul+0x15e>
 8000a30:	f030 4c00 	bics.w	ip, r0, #2147483648	; 0x80000000
 8000a34:	bf18      	it	ne
 8000a36:	f031 4c00 	bicsne.w	ip, r1, #2147483648	; 0x80000000
 8000a3a:	d1ca      	bne.n	80009d2 <__aeabi_fdiv+0xba>
 8000a3c:	f030 4200 	bics.w	r2, r0, #2147483648	; 0x80000000
 8000a40:	f47f af5c 	bne.w	80008fc <__aeabi_fmul+0x14c>
 8000a44:	f031 4300 	bics.w	r3, r1, #2147483648	; 0x80000000
 8000a48:	f47f af3c 	bne.w	80008c4 <__aeabi_fmul+0x114>
 8000a4c:	e75f      	b.n	800090e <__aeabi_fmul+0x15e>
 8000a4e:	bf00      	nop

08000a50 <__gesf2>:
 8000a50:	f04f 3cff 	mov.w	ip, #4294967295
 8000a54:	e006      	b.n	8000a64 <__cmpsf2+0x4>
 8000a56:	bf00      	nop

08000a58 <__lesf2>:
 8000a58:	f04f 0c01 	mov.w	ip, #1
 8000a5c:	e002      	b.n	8000a64 <__cmpsf2+0x4>
 8000a5e:	bf00      	nop

08000a60 <__cmpsf2>:
 8000a60:	f04f 0c01 	mov.w	ip, #1
 8000a64:	f84d cd04 	str.w	ip, [sp, #-4]!
 8000a68:	ea4f 0240 	mov.w	r2, r0, lsl #1
 8000a6c:	ea4f 0341 	mov.w	r3, r1, lsl #1
 8000a70:	ea7f 6c22 	mvns.w	ip, r2, asr #24
 8000a74:	bf18      	it	ne
 8000a76:	ea7f 6c23 	mvnsne.w	ip, r3, asr #24
 8000a7a:	d011      	beq.n	8000aa0 <__cmpsf2+0x40>
 8000a7c:	b001      	add	sp, #4
 8000a7e:	ea52 0c53 	orrs.w	ip, r2, r3, lsr #1
 8000a82:	bf18      	it	ne
 8000a84:	ea90 0f01 	teqne	r0, r1
 8000a88:	bf58      	it	pl
 8000a8a:	ebb2 0003 	subspl.w	r0, r2, r3
 8000a8e:	bf88      	it	hi
 8000a90:	17c8      	asrhi	r0, r1, #31
 8000a92:	bf38      	it	cc
 8000a94:	ea6f 70e1 	mvncc.w	r0, r1, asr #31
 8000a98:	bf18      	it	ne
 8000a9a:	f040 0001 	orrne.w	r0, r0, #1
 8000a9e:	4770      	bx	lr
 8000aa0:	ea7f 6c22 	mvns.w	ip, r2, asr #24
 8000aa4:	d102      	bne.n	8000aac <__cmpsf2+0x4c>
 8000aa6:	ea5f 2c40 	movs.w	ip, r0, lsl #9
 8000aaa:	d105      	bne.n	8000ab8 <__cmpsf2+0x58>
 8000aac:	ea7f 6c23 	mvns.w	ip, r3, asr #24
 8000ab0:	d1e4      	bne.n	8000a7c <__cmpsf2+0x1c>
 8000ab2:	ea5f 2c41 	movs.w	ip, r1, lsl #9
 8000ab6:	d0e1      	beq.n	8000a7c <__cmpsf2+0x1c>
 8000ab8:	f85d 0b04 	ldr.w	r0, [sp], #4
 8000abc:	4770      	bx	lr
 8000abe:	bf00      	nop

08000ac0 <__aeabi_cfrcmple>:
 8000ac0:	4684      	mov	ip, r0
 8000ac2:	4608      	mov	r0, r1
 8000ac4:	4661      	mov	r1, ip
 8000ac6:	e7ff      	b.n	8000ac8 <__aeabi_cfcmpeq>

08000ac8 <__aeabi_cfcmpeq>:
 8000ac8:	b50f      	push	{r0, r1, r2, r3, lr}
 8000aca:	f7ff ffc9 	bl	8000a60 <__cmpsf2>
 8000ace:	2800      	cmp	r0, #0
 8000ad0:	bf48      	it	mi
 8000ad2:	f110 0f00 	cmnmi.w	r0, #0
 8000ad6:	bd0f      	pop	{r0, r1, r2, r3, pc}

08000ad8 <__aeabi_fcmpeq>:
 8000ad8:	f84d ed08 	str.w	lr, [sp, #-8]!
 8000adc:	f7ff fff4 	bl	8000ac8 <__aeabi_cfcmpeq>
 8000ae0:	bf0c      	ite	eq
 8000ae2:	2001      	moveq	r0, #1
 8000ae4:	2000      	movne	r0, #0
 8000ae6:	f85d fb08 	ldr.w	pc, [sp], #8
 8000aea:	bf00      	nop

08000aec <__aeabi_fcmplt>:
 8000aec:	f84d ed08 	str.w	lr, [sp, #-8]!
 8000af0:	f7ff ffea 	bl	8000ac8 <__aeabi_cfcmpeq>
 8000af4:	bf34      	ite	cc
 8000af6:	2001      	movcc	r0, #1
 8000af8:	2000      	movcs	r0, #0
 8000afa:	f85d fb08 	ldr.w	pc, [sp], #8
 8000afe:	bf00      	nop

08000b00 <__aeabi_fcmple>:
 8000b00:	f84d ed08 	str.w	lr, [sp, #-8]!
 8000b04:	f7ff ffe0 	bl	8000ac8 <__aeabi_cfcmpeq>
 8000b08:	bf94      	ite	ls
 8000b0a:	2001      	movls	r0, #1
 8000b0c:	2000      	movhi	r0, #0
 8000b0e:	f85d fb08 	ldr.w	pc, [sp], #8
 8000b12:	bf00      	nop

08000b14 <__aeabi_fcmpge>:
 8000b14:	f84d ed08 	str.w	lr, [sp, #-8]!
 8000b18:	f7ff ffd2 	bl	8000ac0 <__aeabi_cfrcmple>
 8000b1c:	bf94      	ite	ls
 8000b1e:	2001      	movls	r0, #1
 8000b20:	2000      	movhi	r0, #0
 8000b22:	f85d fb08 	ldr.w	pc, [sp], #8
 8000b26:	bf00      	nop

08000b28 <__aeabi_fcmpgt>:
 8000b28:	f84d ed08 	str.w	lr, [sp, #-8]!
 8000b2c:	f7ff ffc8 	bl	8000ac0 <__aeabi_cfrcmple>
 8000b30:	bf34      	ite	cc
 8000b32:	2001      	movcc	r0, #1
 8000b34:	2000      	movcs	r0, #0
 8000b36:	f85d fb08 	ldr.w	pc, [sp], #8
 8000b3a:	bf00      	nop

08000b3c <__aeabi_fcmpun>:
 8000b3c:	ea4f 0240 	mov.w	r2, r0, lsl #1
 8000b40:	ea4f 0341 	mov.w	r3, r1, lsl #1
 8000b44:	ea7f 6c22 	mvns.w	ip, r2, asr #24
 8000b48:	d102      	bne.n	8000b50 <__aeabi_fcmpun+0x14>
 8000b4a:	ea5f 2c40 	movs.w	ip, r0, lsl #9
 8000b4e:	d108      	bne.n	8000b62 <__aeabi_fcmpun+0x26>
 8000b50:	ea7f 6c23 	mvns.w	ip, r3, asr #24
 8000b54:	d102      	bne.n	8000b5c <__aeabi_fcmpun+0x20>
 8000b56:	ea5f 2c41 	movs.w	ip, r1, lsl #9
 8000b5a:	d102      	bne.n	8000b62 <__aeabi_fcmpun+0x26>
 8000b5c:	f04f 0000 	mov.w	r0, #0
 8000b60:	4770      	bx	lr
 8000b62:	f04f 0001 	mov.w	r0, #1
 8000b66:	4770      	bx	lr

08000b68 <__aeabi_f2uiz>:
 8000b68:	0042      	lsls	r2, r0, #1
 8000b6a:	d20e      	bcs.n	8000b8a <__aeabi_f2uiz+0x22>
 8000b6c:	f1b2 4ffe 	cmp.w	r2, #2130706432	; 0x7f000000
 8000b70:	d30b      	bcc.n	8000b8a <__aeabi_f2uiz+0x22>
 8000b72:	f04f 039e 	mov.w	r3, #158	; 0x9e
 8000b76:	ebb3 6212 	subs.w	r2, r3, r2, lsr #24
 8000b7a:	d409      	bmi.n	8000b90 <__aeabi_f2uiz+0x28>
 8000b7c:	ea4f 2300 	mov.w	r3, r0, lsl #8
 8000b80:	f043 4300 	orr.w	r3, r3, #2147483648	; 0x80000000
 8000b84:	fa23 f002 	lsr.w	r0, r3, r2
 8000b88:	4770      	bx	lr
 8000b8a:	f04f 0000 	mov.w	r0, #0
 8000b8e:	4770      	bx	lr
 8000b90:	f112 0f61 	cmn.w	r2, #97	; 0x61
 8000b94:	d101      	bne.n	8000b9a <__aeabi_f2uiz+0x32>
 8000b96:	0242      	lsls	r2, r0, #9
 8000b98:	d102      	bne.n	8000ba0 <__aeabi_f2uiz+0x38>
 8000b9a:	f04f 30ff 	mov.w	r0, #4294967295
 8000b9e:	4770      	bx	lr
 8000ba0:	f04f 0000 	mov.w	r0, #0
 8000ba4:	4770      	bx	lr
 8000ba6:	bf00      	nop

08000ba8 <__NVIC_EnableIRQ>:
  \details Enables a device specific interrupt in the NVIC interrupt controller.
  \param [in]      IRQn  Device specific interrupt number.
  \note    IRQn must not be negative.
 */
__STATIC_INLINE void __NVIC_EnableIRQ(IRQn_Type IRQn)
{
 8000ba8:	b480      	push	{r7}
 8000baa:	b083      	sub	sp, #12
 8000bac:	af00      	add	r7, sp, #0
 8000bae:	4603      	mov	r3, r0
 8000bb0:	71fb      	strb	r3, [r7, #7]
  if ((int32_t)(IRQn) >= 0)
 8000bb2:	f997 3007 	ldrsb.w	r3, [r7, #7]
 8000bb6:	2b00      	cmp	r3, #0
 8000bb8:	db0d      	blt.n	8000bd6 <__NVIC_EnableIRQ+0x2e>
  {
    NVIC->ISER[(((uint32_t)IRQn) >> 5UL)] = (uint32_t)(1UL << (((uint32_t)IRQn) & 0x1FUL));
 8000bba:	f997 3007 	ldrsb.w	r3, [r7, #7]
 8000bbe:	b2db      	uxtb	r3, r3
 8000bc0:	f003 021f 	and.w	r2, r3, #31
 8000bc4:	4906      	ldr	r1, [pc, #24]	; (8000be0 <__NVIC_EnableIRQ+0x38>)
 8000bc6:	f997 3007 	ldrsb.w	r3, [r7, #7]
 8000bca:	095b      	lsrs	r3, r3, #5
 8000bcc:	2001      	movs	r0, #1
 8000bce:	fa00 f202 	lsl.w	r2, r0, r2
 8000bd2:	f841 2023 	str.w	r2, [r1, r3, lsl #2]
  }
}
 8000bd6:	bf00      	nop
 8000bd8:	370c      	adds	r7, #12
 8000bda:	46bd      	mov	sp, r7
 8000bdc:	bc80      	pop	{r7}
 8000bde:	4770      	bx	lr
 8000be0:	e000e100 	.word	0xe000e100

08000be4 <__NVIC_SetPriority>:
  \param [in]      IRQn  Interrupt number.
  \param [in]  priority  Priority to set.
  \note    The priority cannot be set for every processor exception.
 */
__STATIC_INLINE void __NVIC_SetPriority(IRQn_Type IRQn, uint32_t priority)
{
 8000be4:	b480      	push	{r7}
 8000be6:	b083      	sub	sp, #12
 8000be8:	af00      	add	r7, sp, #0
 8000bea:	4603      	mov	r3, r0
 8000bec:	6039      	str	r1, [r7, #0]
 8000bee:	71fb      	strb	r3, [r7, #7]
  if ((int32_t)(IRQn) >= 0)
 8000bf0:	f997 3007 	ldrsb.w	r3, [r7, #7]
 8000bf4:	2b00      	cmp	r3, #0
 8000bf6:	db0c      	blt.n	8000c12 <__NVIC_SetPriority+0x2e>
  {
    NVIC->IP[((uint32_t)IRQn)]               = (uint8_t)((priority << (8U - __NVIC_PRIO_BITS)) & (uint32_t)0xFFUL);
 8000bf8:	683b      	ldr	r3, [r7, #0]
 8000bfa:	b2db      	uxtb	r3, r3
 8000bfc:	4a0e      	ldr	r2, [pc, #56]	; (8000c38 <__NVIC_SetPriority+0x54>)
 8000bfe:	f997 1007 	ldrsb.w	r1, [r7, #7]
 8000c02:	4608      	mov	r0, r1
 8000c04:	011b      	lsls	r3, r3, #4
 8000c06:	b2d9      	uxtb	r1, r3
 8000c08:	1813      	adds	r3, r2, r0
 8000c0a:	460a      	mov	r2, r1
 8000c0c:	f883 2300 	strb.w	r2, [r3, #768]	; 0x300
  }
  else
  {
    SCB->SHP[(((uint32_t)IRQn) & 0xFUL)-4UL] = (uint8_t)((priority << (8U - __NVIC_PRIO_BITS)) & (uint32_t)0xFFUL);
  }
}
 8000c10:	e00c      	b.n	8000c2c <__NVIC_SetPriority+0x48>
    SCB->SHP[(((uint32_t)IRQn) & 0xFUL)-4UL] = (uint8_t)((priority << (8U - __NVIC_PRIO_BITS)) & (uint32_t)0xFFUL);
 8000c12:	683b      	ldr	r3, [r7, #0]
 8000c14:	b2da      	uxtb	r2, r3
 8000c16:	4909      	ldr	r1, [pc, #36]	; (8000c3c <__NVIC_SetPriority+0x58>)
 8000c18:	f997 3007 	ldrsb.w	r3, [r7, #7]
 8000c1c:	b2db      	uxtb	r3, r3
 8000c1e:	f003 030f 	and.w	r3, r3, #15
 8000c22:	3b04      	subs	r3, #4
 8000c24:	0112      	lsls	r2, r2, #4
 8000c26:	b2d2      	uxtb	r2, r2
 8000c28:	440b      	add	r3, r1
 8000c2a:	761a      	strb	r2, [r3, #24]
}
 8000c2c:	bf00      	nop
 8000c2e:	370c      	adds	r7, #12
 8000c30:	46bd      	mov	sp, r7
 8000c32:	bc80      	pop	{r7}
 8000c34:	4770      	bx	lr
 8000c36:	bf00      	nop
 8000c38:	e000e100 	.word	0xe000e100
 8000c3c:	e000ed00 	.word	0xe000ed00

08000c40 <_Z18SystemClock_Configv>:
#define PLL_M 4
#define PLL_N 168
#define PLL_P 2		//  Main PLL (PLL) division factor for main system clock can be 2 (PLL_P = 0), 4 (PLL_P = 1), 6 (PLL_P = 2), 8 (PLL_P = 3)
#define PLL_Q 0

void SystemClock_Config(void) {
 8000c40:	b480      	push	{r7}
 8000c42:	af00      	add	r7, sp, #0

	//NVIC_SetPriorityGrouping(NVIC_PRIORITYGROUP_4);
	//RCC->APB1ENR |= RCC_APB1ENR_COMPEN;			// Enable comparator
	RCC->APB2ENR |= RCC_APB2ENR_SYSCFGEN;
 8000c44:	4b43      	ldr	r3, [pc, #268]	; (8000d54 <_Z18SystemClock_Configv+0x114>)
 8000c46:	6a1b      	ldr	r3, [r3, #32]
 8000c48:	4a42      	ldr	r2, [pc, #264]	; (8000d54 <_Z18SystemClock_Configv+0x114>)
 8000c4a:	f043 0301 	orr.w	r3, r3, #1
 8000c4e:	6213      	str	r3, [r2, #32]

	RCC->APB1ENR |= RCC_APB1ENR_PWREN;			// Enable Power Control clock
 8000c50:	4b40      	ldr	r3, [pc, #256]	; (8000d54 <_Z18SystemClock_Configv+0x114>)
 8000c52:	6a5b      	ldr	r3, [r3, #36]	; 0x24
 8000c54:	4a3f      	ldr	r2, [pc, #252]	; (8000d54 <_Z18SystemClock_Configv+0x114>)
 8000c56:	f043 5380 	orr.w	r3, r3, #268435456	; 0x10000000
 8000c5a:	6253      	str	r3, [r2, #36]	; 0x24
	PWR->CR |= PWR_CR_VOS_0;					// Enable VOS voltage scaling - allows maximum clock speed
 8000c5c:	4b3e      	ldr	r3, [pc, #248]	; (8000d58 <_Z18SystemClock_Configv+0x118>)
 8000c5e:	681b      	ldr	r3, [r3, #0]
 8000c60:	4a3d      	ldr	r2, [pc, #244]	; (8000d58 <_Z18SystemClock_Configv+0x118>)
 8000c62:	f443 6300 	orr.w	r3, r3, #2048	; 0x800
 8000c66:	6013      	str	r3, [r2, #0]
	PWR->CR &= ~PWR_CR_VOS_1;
 8000c68:	4b3b      	ldr	r3, [pc, #236]	; (8000d58 <_Z18SystemClock_Configv+0x118>)
 8000c6a:	681b      	ldr	r3, [r3, #0]
 8000c6c:	4a3a      	ldr	r2, [pc, #232]	; (8000d58 <_Z18SystemClock_Configv+0x118>)
 8000c6e:	f423 5380 	bic.w	r3, r3, #4096	; 0x1000
 8000c72:	6013      	str	r3, [r2, #0]
	while (PWR->CSR & PWR_CSR_VOSF);			// Wait until VOS scaling is finished
 8000c74:	4b38      	ldr	r3, [pc, #224]	; (8000d58 <_Z18SystemClock_Configv+0x118>)
 8000c76:	685b      	ldr	r3, [r3, #4]
 8000c78:	f003 0310 	and.w	r3, r3, #16
 8000c7c:	2b00      	cmp	r3, #0
 8000c7e:	bf14      	ite	ne
 8000c80:	2301      	movne	r3, #1
 8000c82:	2300      	moveq	r3, #0
 8000c84:	b2db      	uxtb	r3, r3
 8000c86:	2b00      	cmp	r3, #0
 8000c88:	d000      	beq.n	8000c8c <_Z18SystemClock_Configv+0x4c>
 8000c8a:	e7f3      	b.n	8000c74 <_Z18SystemClock_Configv+0x34>

	//SCB->CPACR |= ((3UL << 10*2)|(3UL << 11*2));// CPACR register: set full access privileges for coprocessors

	RCC->CR |= RCC_CR_HSEON;					// HSE ON
 8000c8c:	4b31      	ldr	r3, [pc, #196]	; (8000d54 <_Z18SystemClock_Configv+0x114>)
 8000c8e:	681b      	ldr	r3, [r3, #0]
 8000c90:	4a30      	ldr	r2, [pc, #192]	; (8000d54 <_Z18SystemClock_Configv+0x114>)
 8000c92:	f443 3380 	orr.w	r3, r3, #65536	; 0x10000
 8000c96:	6013      	str	r3, [r2, #0]
	while ((RCC->CR & RCC_CR_HSERDY) == 0);		// Wait till HSE is ready
 8000c98:	4b2e      	ldr	r3, [pc, #184]	; (8000d54 <_Z18SystemClock_Configv+0x114>)
 8000c9a:	681b      	ldr	r3, [r3, #0]
 8000c9c:	f403 3300 	and.w	r3, r3, #131072	; 0x20000
 8000ca0:	2b00      	cmp	r3, #0
 8000ca2:	bf0c      	ite	eq
 8000ca4:	2301      	moveq	r3, #1
 8000ca6:	2300      	movne	r3, #0
 8000ca8:	b2db      	uxtb	r3, r3
 8000caa:	2b00      	cmp	r3, #0
 8000cac:	d000      	beq.n	8000cb0 <_Z18SystemClock_Configv+0x70>
 8000cae:	e7f3      	b.n	8000c98 <_Z18SystemClock_Configv+0x58>
	RCC->CFGR |= RCC_CFGR_PLLDIV2;				// 01: PLLVCO/2; 10: PLLVCO/3; 11: PLLVCO/4
 8000cb0:	4b28      	ldr	r3, [pc, #160]	; (8000d54 <_Z18SystemClock_Configv+0x114>)
 8000cb2:	689b      	ldr	r3, [r3, #8]
 8000cb4:	4a27      	ldr	r2, [pc, #156]	; (8000d54 <_Z18SystemClock_Configv+0x114>)
 8000cb6:	f443 0380 	orr.w	r3, r3, #4194304	; 0x400000
 8000cba:	6093      	str	r3, [r2, #8]
	RCC->CFGR |= RCC_CFGR_PLLMUL4;				// 0011: PLLVCO = PLL clock entry x 8
 8000cbc:	4b25      	ldr	r3, [pc, #148]	; (8000d54 <_Z18SystemClock_Configv+0x114>)
 8000cbe:	689b      	ldr	r3, [r3, #8]
 8000cc0:	4a24      	ldr	r2, [pc, #144]	; (8000d54 <_Z18SystemClock_Configv+0x114>)
 8000cc2:	f443 2380 	orr.w	r3, r3, #262144	; 0x40000
 8000cc6:	6093      	str	r3, [r2, #8]
	RCC->CFGR |= RCC_CFGR_PLLSRC_HSE;			// 0: HSI oscillator clock selected as PLL input clock; 1: HSE oscillator clock selected as PLL input clock
 8000cc8:	4b22      	ldr	r3, [pc, #136]	; (8000d54 <_Z18SystemClock_Configv+0x114>)
 8000cca:	689b      	ldr	r3, [r3, #8]
 8000ccc:	4a21      	ldr	r2, [pc, #132]	; (8000d54 <_Z18SystemClock_Configv+0x114>)
 8000cce:	f443 3380 	orr.w	r3, r3, #65536	; 0x10000
 8000cd2:	6093      	str	r3, [r2, #8]

    RCC->CFGR |= RCC_CFGR_HPRE_DIV1;			// AHB prescaler
 8000cd4:	4b1f      	ldr	r3, [pc, #124]	; (8000d54 <_Z18SystemClock_Configv+0x114>)
 8000cd6:	4a1f      	ldr	r2, [pc, #124]	; (8000d54 <_Z18SystemClock_Configv+0x114>)
 8000cd8:	689b      	ldr	r3, [r3, #8]
 8000cda:	6093      	str	r3, [r2, #8]
	RCC->CFGR |= RCC_CFGR_PPRE1_DIV1;			// APB low-speed prescaler (APB1)
 8000cdc:	4b1d      	ldr	r3, [pc, #116]	; (8000d54 <_Z18SystemClock_Configv+0x114>)
 8000cde:	4a1d      	ldr	r2, [pc, #116]	; (8000d54 <_Z18SystemClock_Configv+0x114>)
 8000ce0:	689b      	ldr	r3, [r3, #8]
 8000ce2:	6093      	str	r3, [r2, #8]
	RCC->CFGR |= RCC_CFGR_PPRE2_DIV1;			// APB low-speed prescaler (APB2)
 8000ce4:	4b1b      	ldr	r3, [pc, #108]	; (8000d54 <_Z18SystemClock_Configv+0x114>)
 8000ce6:	4a1b      	ldr	r2, [pc, #108]	; (8000d54 <_Z18SystemClock_Configv+0x114>)
 8000ce8:	689b      	ldr	r3, [r3, #8]
 8000cea:	6093      	str	r3, [r2, #8]

	RCC->CR |= RCC_CR_PLLON;					// Enable the main PLL
 8000cec:	4b19      	ldr	r3, [pc, #100]	; (8000d54 <_Z18SystemClock_Configv+0x114>)
 8000cee:	681b      	ldr	r3, [r3, #0]
 8000cf0:	4a18      	ldr	r2, [pc, #96]	; (8000d54 <_Z18SystemClock_Configv+0x114>)
 8000cf2:	f043 7380 	orr.w	r3, r3, #16777216	; 0x1000000
 8000cf6:	6013      	str	r3, [r2, #0]
	while((RCC->CR & RCC_CR_PLLRDY) == 0);		// Wait till the main PLL is ready
 8000cf8:	4b16      	ldr	r3, [pc, #88]	; (8000d54 <_Z18SystemClock_Configv+0x114>)
 8000cfa:	681b      	ldr	r3, [r3, #0]
 8000cfc:	f003 7300 	and.w	r3, r3, #33554432	; 0x2000000
 8000d00:	2b00      	cmp	r3, #0
 8000d02:	bf0c      	ite	eq
 8000d04:	2301      	moveq	r3, #1
 8000d06:	2300      	movne	r3, #0
 8000d08:	b2db      	uxtb	r3, r3
 8000d0a:	2b00      	cmp	r3, #0
 8000d0c:	d000      	beq.n	8000d10 <_Z18SystemClock_Configv+0xd0>
 8000d0e:	e7f3      	b.n	8000cf8 <_Z18SystemClock_Configv+0xb8>


	//	Turn on HSI - Needed for ADC to function
	RCC->CR |= RCC_CR_HSION;
 8000d10:	4b10      	ldr	r3, [pc, #64]	; (8000d54 <_Z18SystemClock_Configv+0x114>)
 8000d12:	681b      	ldr	r3, [r3, #0]
 8000d14:	4a0f      	ldr	r2, [pc, #60]	; (8000d54 <_Z18SystemClock_Configv+0x114>)
 8000d16:	f043 0301 	orr.w	r3, r3, #1
 8000d1a:	6013      	str	r3, [r2, #0]

	// Configure Flash prefetch, Instruction cache, Data cache and wait state
//	FLASH->ACR = FLASH_ACR_PRFTEN | FLASH_ACR_LATENCY;		//  | FLASH_ACR_ICEN | FLASH_ACR_DCEN

	// Select the main PLL as system clock source
	RCC->CFGR &= ~RCC_CFGR_SW;
 8000d1c:	4b0d      	ldr	r3, [pc, #52]	; (8000d54 <_Z18SystemClock_Configv+0x114>)
 8000d1e:	689b      	ldr	r3, [r3, #8]
 8000d20:	4a0c      	ldr	r2, [pc, #48]	; (8000d54 <_Z18SystemClock_Configv+0x114>)
 8000d22:	f023 0303 	bic.w	r3, r3, #3
 8000d26:	6093      	str	r3, [r2, #8]
	RCC->CFGR |= RCC_CFGR_SW_PLL;
 8000d28:	4b0a      	ldr	r3, [pc, #40]	; (8000d54 <_Z18SystemClock_Configv+0x114>)
 8000d2a:	689b      	ldr	r3, [r3, #8]
 8000d2c:	4a09      	ldr	r2, [pc, #36]	; (8000d54 <_Z18SystemClock_Configv+0x114>)
 8000d2e:	f043 0303 	orr.w	r3, r3, #3
 8000d32:	6093      	str	r3, [r2, #8]

	// Wait till the main PLL is used as system clock source
	while ((RCC->CFGR & (uint32_t)RCC_CFGR_SWS ) != RCC_CFGR_SWS_PLL);
 8000d34:	4b07      	ldr	r3, [pc, #28]	; (8000d54 <_Z18SystemClock_Configv+0x114>)
 8000d36:	689b      	ldr	r3, [r3, #8]
 8000d38:	f003 030c 	and.w	r3, r3, #12
 8000d3c:	2b0c      	cmp	r3, #12
 8000d3e:	bf14      	ite	ne
 8000d40:	2301      	movne	r3, #1
 8000d42:	2300      	moveq	r3, #0
 8000d44:	b2db      	uxtb	r3, r3
 8000d46:	2b00      	cmp	r3, #0
 8000d48:	d000      	beq.n	8000d4c <_Z18SystemClock_Configv+0x10c>
 8000d4a:	e7f3      	b.n	8000d34 <_Z18SystemClock_Configv+0xf4>

}
 8000d4c:	bf00      	nop
 8000d4e:	46bd      	mov	sp, r7
 8000d50:	bc80      	pop	{r7}
 8000d52:	4770      	bx	lr
 8000d54:	40023800 	.word	0x40023800
 8000d58:	40007000 	.word	0x40007000

08000d5c <_Z7InitADCv>:
	ADC1->CR2 |= ADC_CR2_ADON;						// Activate ADC
}


void InitADC(void)
{
 8000d5c:	b480      	push	{r7}
 8000d5e:	af00      	add	r7, sp, #0
	//	Setup Timer 2 to trigger ADC
	RCC->APB1ENR |= RCC_APB1ENR_TIM2EN;				// Enable Timer 2 clock
 8000d60:	4b9d      	ldr	r3, [pc, #628]	; (8000fd8 <_Z7InitADCv+0x27c>)
 8000d62:	6a5b      	ldr	r3, [r3, #36]	; 0x24
 8000d64:	4a9c      	ldr	r2, [pc, #624]	; (8000fd8 <_Z7InitADCv+0x27c>)
 8000d66:	f043 0301 	orr.w	r3, r3, #1
 8000d6a:	6253      	str	r3, [r2, #36]	; 0x24
	TIM2->CR2 |= TIM_CR2_MMS_2;						// 100: Compare - OC1REF signal is used as trigger output (TRGO)
 8000d6c:	f04f 4380 	mov.w	r3, #1073741824	; 0x40000000
 8000d70:	685b      	ldr	r3, [r3, #4]
 8000d72:	f04f 4280 	mov.w	r2, #1073741824	; 0x40000000
 8000d76:	f043 0340 	orr.w	r3, r3, #64	; 0x40
 8000d7a:	6053      	str	r3, [r2, #4]
	TIM2->PSC = 20 - 1;								// Prescaler
 8000d7c:	f04f 4380 	mov.w	r3, #1073741824	; 0x40000000
 8000d80:	2213      	movs	r2, #19
 8000d82:	629a      	str	r2, [r3, #40]	; 0x28
	TIM2->ARR = 100 - 1;							// Auto-reload register (ie reset counter) divided by 100
 8000d84:	f04f 4380 	mov.w	r3, #1073741824	; 0x40000000
 8000d88:	2263      	movs	r2, #99	; 0x63
 8000d8a:	62da      	str	r2, [r3, #44]	; 0x2c
	TIM2->CCR1 = 50 - 1;							// Capture and compare - ie when counter hits this number PWM high
 8000d8c:	f04f 4380 	mov.w	r3, #1073741824	; 0x40000000
 8000d90:	2231      	movs	r2, #49	; 0x31
 8000d92:	635a      	str	r2, [r3, #52]	; 0x34
	TIM2->CCER |= TIM_CCER_CC1E;					// Capture/Compare 1 output enable
 8000d94:	f04f 4380 	mov.w	r3, #1073741824	; 0x40000000
 8000d98:	6a1b      	ldr	r3, [r3, #32]
 8000d9a:	f04f 4280 	mov.w	r2, #1073741824	; 0x40000000
 8000d9e:	f043 0301 	orr.w	r3, r3, #1
 8000da2:	6213      	str	r3, [r2, #32]
	TIM2->CCMR1 |= TIM_CCMR1_OC1M_1 |TIM_CCMR1_OC1M_2;	// 110 PWM Mode 1
 8000da4:	f04f 4380 	mov.w	r3, #1073741824	; 0x40000000
 8000da8:	699b      	ldr	r3, [r3, #24]
 8000daa:	f04f 4280 	mov.w	r2, #1073741824	; 0x40000000
 8000dae:	f043 0360 	orr.w	r3, r3, #96	; 0x60
 8000db2:	6193      	str	r3, [r2, #24]
	TIM2->CR1 |= TIM_CR1_CEN;
 8000db4:	f04f 4380 	mov.w	r3, #1073741824	; 0x40000000
 8000db8:	681b      	ldr	r3, [r3, #0]
 8000dba:	f04f 4280 	mov.w	r2, #1073741824	; 0x40000000
 8000dbe:	f043 0301 	orr.w	r3, r3, #1
 8000dc2:	6013      	str	r3, [r2, #0]

	// Enable ADC2 and GPIO clock sources
	RCC->AHBENR |= RCC_AHBENR_GPIOAEN;
 8000dc4:	4b84      	ldr	r3, [pc, #528]	; (8000fd8 <_Z7InitADCv+0x27c>)
 8000dc6:	69db      	ldr	r3, [r3, #28]
 8000dc8:	4a83      	ldr	r2, [pc, #524]	; (8000fd8 <_Z7InitADCv+0x27c>)
 8000dca:	f043 0301 	orr.w	r3, r3, #1
 8000dce:	61d3      	str	r3, [r2, #28]
	RCC->AHBENR |= RCC_AHBENR_GPIOBEN;
 8000dd0:	4b81      	ldr	r3, [pc, #516]	; (8000fd8 <_Z7InitADCv+0x27c>)
 8000dd2:	69db      	ldr	r3, [r3, #28]
 8000dd4:	4a80      	ldr	r2, [pc, #512]	; (8000fd8 <_Z7InitADCv+0x27c>)
 8000dd6:	f043 0302 	orr.w	r3, r3, #2
 8000dda:	61d3      	str	r3, [r2, #28]
	RCC->AHBENR |= RCC_AHBENR_GPIOCEN;
 8000ddc:	4b7e      	ldr	r3, [pc, #504]	; (8000fd8 <_Z7InitADCv+0x27c>)
 8000dde:	69db      	ldr	r3, [r3, #28]
 8000de0:	4a7d      	ldr	r2, [pc, #500]	; (8000fd8 <_Z7InitADCv+0x27c>)
 8000de2:	f043 0304 	orr.w	r3, r3, #4
 8000de6:	61d3      	str	r3, [r2, #28]
	RCC->APB2ENR |= RCC_APB2ENR_ADC1EN;
 8000de8:	4b7b      	ldr	r3, [pc, #492]	; (8000fd8 <_Z7InitADCv+0x27c>)
 8000dea:	6a1b      	ldr	r3, [r3, #32]
 8000dec:	4a7a      	ldr	r2, [pc, #488]	; (8000fd8 <_Z7InitADCv+0x27c>)
 8000dee:	f443 7300 	orr.w	r3, r3, #512	; 0x200
 8000df2:	6213      	str	r3, [r2, #32]

	// Enable ADC - Set Pins to Analog mode (0b11)
	GPIOA->MODER |= GPIO_MODER_MODER0;				// Set PA0 ADC_IN0
 8000df4:	4b79      	ldr	r3, [pc, #484]	; (8000fdc <_Z7InitADCv+0x280>)
 8000df6:	681b      	ldr	r3, [r3, #0]
 8000df8:	4a78      	ldr	r2, [pc, #480]	; (8000fdc <_Z7InitADCv+0x280>)
 8000dfa:	f043 0303 	orr.w	r3, r3, #3
 8000dfe:	6013      	str	r3, [r2, #0]
	GPIOA->MODER |= GPIO_MODER_MODER1;				// Set PA1 ADC_IN1
 8000e00:	4b76      	ldr	r3, [pc, #472]	; (8000fdc <_Z7InitADCv+0x280>)
 8000e02:	681b      	ldr	r3, [r3, #0]
 8000e04:	4a75      	ldr	r2, [pc, #468]	; (8000fdc <_Z7InitADCv+0x280>)
 8000e06:	f043 030c 	orr.w	r3, r3, #12
 8000e0a:	6013      	str	r3, [r2, #0]
	GPIOA->MODER |= GPIO_MODER_MODER2;				// Set PA2 ADC_IN2
 8000e0c:	4b73      	ldr	r3, [pc, #460]	; (8000fdc <_Z7InitADCv+0x280>)
 8000e0e:	681b      	ldr	r3, [r3, #0]
 8000e10:	4a72      	ldr	r2, [pc, #456]	; (8000fdc <_Z7InitADCv+0x280>)
 8000e12:	f043 0330 	orr.w	r3, r3, #48	; 0x30
 8000e16:	6013      	str	r3, [r2, #0]
	GPIOA->MODER |= GPIO_MODER_MODER3;				// Set PA3 ADC_IN3
 8000e18:	4b70      	ldr	r3, [pc, #448]	; (8000fdc <_Z7InitADCv+0x280>)
 8000e1a:	681b      	ldr	r3, [r3, #0]
 8000e1c:	4a6f      	ldr	r2, [pc, #444]	; (8000fdc <_Z7InitADCv+0x280>)
 8000e1e:	f043 03c0 	orr.w	r3, r3, #192	; 0xc0
 8000e22:	6013      	str	r3, [r2, #0]
	GPIOA->MODER |= GPIO_MODER_MODER4;				// Set PA4 ADC_IN4
 8000e24:	4b6d      	ldr	r3, [pc, #436]	; (8000fdc <_Z7InitADCv+0x280>)
 8000e26:	681b      	ldr	r3, [r3, #0]
 8000e28:	4a6c      	ldr	r2, [pc, #432]	; (8000fdc <_Z7InitADCv+0x280>)
 8000e2a:	f443 7340 	orr.w	r3, r3, #768	; 0x300
 8000e2e:	6013      	str	r3, [r2, #0]
	GPIOA->MODER |= GPIO_MODER_MODER5;				// Set PA5 ADC_IN5
 8000e30:	4b6a      	ldr	r3, [pc, #424]	; (8000fdc <_Z7InitADCv+0x280>)
 8000e32:	681b      	ldr	r3, [r3, #0]
 8000e34:	4a69      	ldr	r2, [pc, #420]	; (8000fdc <_Z7InitADCv+0x280>)
 8000e36:	f443 6340 	orr.w	r3, r3, #3072	; 0xc00
 8000e3a:	6013      	str	r3, [r2, #0]
	GPIOA->MODER |= GPIO_MODER_MODER6;				// Set PA6 ADC_IN6 *** Not Working
 8000e3c:	4b67      	ldr	r3, [pc, #412]	; (8000fdc <_Z7InitADCv+0x280>)
 8000e3e:	681b      	ldr	r3, [r3, #0]
 8000e40:	4a66      	ldr	r2, [pc, #408]	; (8000fdc <_Z7InitADCv+0x280>)
 8000e42:	f443 5340 	orr.w	r3, r3, #12288	; 0x3000
 8000e46:	6013      	str	r3, [r2, #0]
	GPIOA->MODER |= GPIO_MODER_MODER7;				// Set PA7 ADC_IN7
 8000e48:	4b64      	ldr	r3, [pc, #400]	; (8000fdc <_Z7InitADCv+0x280>)
 8000e4a:	681b      	ldr	r3, [r3, #0]
 8000e4c:	4a63      	ldr	r2, [pc, #396]	; (8000fdc <_Z7InitADCv+0x280>)
 8000e4e:	f443 4340 	orr.w	r3, r3, #49152	; 0xc000
 8000e52:	6013      	str	r3, [r2, #0]

	GPIOB->MODER |= GPIO_MODER_MODER0;				// Set PB0 ADC_IN8
 8000e54:	4b62      	ldr	r3, [pc, #392]	; (8000fe0 <_Z7InitADCv+0x284>)
 8000e56:	681b      	ldr	r3, [r3, #0]
 8000e58:	4a61      	ldr	r2, [pc, #388]	; (8000fe0 <_Z7InitADCv+0x284>)
 8000e5a:	f043 0303 	orr.w	r3, r3, #3
 8000e5e:	6013      	str	r3, [r2, #0]
	GPIOB->MODER |= GPIO_MODER_MODER1;				// Set PB1 ADC_IN9 *** Not working
 8000e60:	4b5f      	ldr	r3, [pc, #380]	; (8000fe0 <_Z7InitADCv+0x284>)
 8000e62:	681b      	ldr	r3, [r3, #0]
 8000e64:	4a5e      	ldr	r2, [pc, #376]	; (8000fe0 <_Z7InitADCv+0x284>)
 8000e66:	f043 030c 	orr.w	r3, r3, #12
 8000e6a:	6013      	str	r3, [r2, #0]

	GPIOB->MODER |= GPIO_MODER_MODER12;				// Set PB12 ADC_IN18
 8000e6c:	4b5c      	ldr	r3, [pc, #368]	; (8000fe0 <_Z7InitADCv+0x284>)
 8000e6e:	681b      	ldr	r3, [r3, #0]
 8000e70:	4a5b      	ldr	r2, [pc, #364]	; (8000fe0 <_Z7InitADCv+0x284>)
 8000e72:	f043 7340 	orr.w	r3, r3, #50331648	; 0x3000000
 8000e76:	6013      	str	r3, [r2, #0]
	GPIOB->MODER |= GPIO_MODER_MODER13;				// Set PB13 ADC_IN19 *** Not Working
 8000e78:	4b59      	ldr	r3, [pc, #356]	; (8000fe0 <_Z7InitADCv+0x284>)
 8000e7a:	681b      	ldr	r3, [r3, #0]
 8000e7c:	4a58      	ldr	r2, [pc, #352]	; (8000fe0 <_Z7InitADCv+0x284>)
 8000e7e:	f043 6340 	orr.w	r3, r3, #201326592	; 0xc000000
 8000e82:	6013      	str	r3, [r2, #0]
	GPIOB->MODER |= GPIO_MODER_MODER14;				// Set PB14 ADC_IN20 *** Not Working
 8000e84:	4b56      	ldr	r3, [pc, #344]	; (8000fe0 <_Z7InitADCv+0x284>)
 8000e86:	681b      	ldr	r3, [r3, #0]
 8000e88:	4a55      	ldr	r2, [pc, #340]	; (8000fe0 <_Z7InitADCv+0x284>)
 8000e8a:	f043 5340 	orr.w	r3, r3, #805306368	; 0x30000000
 8000e8e:	6013      	str	r3, [r2, #0]
	GPIOB->MODER |= GPIO_MODER_MODER15;				// Set PB15 ADC_IN21
 8000e90:	4b53      	ldr	r3, [pc, #332]	; (8000fe0 <_Z7InitADCv+0x284>)
 8000e92:	681b      	ldr	r3, [r3, #0]
 8000e94:	4a52      	ldr	r2, [pc, #328]	; (8000fe0 <_Z7InitADCv+0x284>)
 8000e96:	f043 4340 	orr.w	r3, r3, #3221225472	; 0xc0000000
 8000e9a:	6013      	str	r3, [r2, #0]

	ADC1->CR1 |= ADC_CR1_SCAN;						// Activate scan mode
 8000e9c:	4b51      	ldr	r3, [pc, #324]	; (8000fe4 <_Z7InitADCv+0x288>)
 8000e9e:	685b      	ldr	r3, [r3, #4]
 8000ea0:	4a50      	ldr	r2, [pc, #320]	; (8000fe4 <_Z7InitADCv+0x288>)
 8000ea2:	f443 7380 	orr.w	r3, r3, #256	; 0x100
 8000ea6:	6053      	str	r3, [r2, #4]
	ADC1->SQR1 = (ADC_BUFFER_LENGTH - 1) << 20;		// Number of conversions in sequence
 8000ea8:	4b4e      	ldr	r3, [pc, #312]	; (8000fe4 <_Z7InitADCv+0x288>)
 8000eaa:	f44f 0280 	mov.w	r2, #4194304	; 0x400000
 8000eae:	631a      	str	r2, [r3, #48]	; 0x30
	ADC1->SQR5 |= 18 << 0;							// Set IN18  1st conversion in sequence
 8000eb0:	4b4c      	ldr	r3, [pc, #304]	; (8000fe4 <_Z7InitADCv+0x288>)
 8000eb2:	6c1b      	ldr	r3, [r3, #64]	; 0x40
 8000eb4:	4a4b      	ldr	r2, [pc, #300]	; (8000fe4 <_Z7InitADCv+0x288>)
 8000eb6:	f043 0312 	orr.w	r3, r3, #18
 8000eba:	6413      	str	r3, [r2, #64]	; 0x40
	ADC1->SQR5 |= 19 << 5;							// Set IN19  2nd conversion in sequence
 8000ebc:	4b49      	ldr	r3, [pc, #292]	; (8000fe4 <_Z7InitADCv+0x288>)
 8000ebe:	6c1b      	ldr	r3, [r3, #64]	; 0x40
 8000ec0:	4a48      	ldr	r2, [pc, #288]	; (8000fe4 <_Z7InitADCv+0x288>)
 8000ec2:	f443 7318 	orr.w	r3, r3, #608	; 0x260
 8000ec6:	6413      	str	r3, [r2, #64]	; 0x40
	ADC1->SQR5 |= 20 << 10;							// Set IN20  3rd conversion in sequence
 8000ec8:	4b46      	ldr	r3, [pc, #280]	; (8000fe4 <_Z7InitADCv+0x288>)
 8000eca:	6c1b      	ldr	r3, [r3, #64]	; 0x40
 8000ecc:	4a45      	ldr	r2, [pc, #276]	; (8000fe4 <_Z7InitADCv+0x288>)
 8000ece:	f443 43a0 	orr.w	r3, r3, #20480	; 0x5000
 8000ed2:	6413      	str	r3, [r2, #64]	; 0x40
	ADC1->SQR5 |= 9 << 15;							// Set IN9  4th conversion in sequence
 8000ed4:	4b43      	ldr	r3, [pc, #268]	; (8000fe4 <_Z7InitADCv+0x288>)
 8000ed6:	6c1b      	ldr	r3, [r3, #64]	; 0x40
 8000ed8:	4a42      	ldr	r2, [pc, #264]	; (8000fe4 <_Z7InitADCv+0x288>)
 8000eda:	f443 2390 	orr.w	r3, r3, #294912	; 0x48000
 8000ede:	6413      	str	r3, [r2, #64]	; 0x40
	ADC1->SQR5 |= 8 << 20;							// Set IN8  5th conversion in sequence
 8000ee0:	4b40      	ldr	r3, [pc, #256]	; (8000fe4 <_Z7InitADCv+0x288>)
 8000ee2:	6c1b      	ldr	r3, [r3, #64]	; 0x40
 8000ee4:	4a3f      	ldr	r2, [pc, #252]	; (8000fe4 <_Z7InitADCv+0x288>)
 8000ee6:	f443 0300 	orr.w	r3, r3, #8388608	; 0x800000
 8000eea:	6413      	str	r3, [r2, #64]	; 0x40
//	ADC1->SQR4 |= 7 << 10;							// Set IN7  9th conversion in sequence
//	ADC1->SQR4 |= 11 << 15;							// Set IN11 10th conversion in sequence

	//	Set to 56 cycles (0b11) sampling speed (SMPR2 Left shift speed 3 x ADC_INx up to input 9; use SMPR1 from 0 for ADC_IN10+)
	// 000: 3 cycles; 001: 15 cycles; 010: 28 cycles; 011: 56 cycles; 100: 84 cycles; 101: 112 cycles; 110: 144 cycles; 111: 480 cycles
	ADC1->SMPR2 |= 0b110 << 24;						// Set speed of IN18
 8000eec:	4b3d      	ldr	r3, [pc, #244]	; (8000fe4 <_Z7InitADCv+0x288>)
 8000eee:	691b      	ldr	r3, [r3, #16]
 8000ef0:	4a3c      	ldr	r2, [pc, #240]	; (8000fe4 <_Z7InitADCv+0x288>)
 8000ef2:	f043 63c0 	orr.w	r3, r3, #100663296	; 0x6000000
 8000ef6:	6113      	str	r3, [r2, #16]
	ADC1->SMPR2 |= 0b110 << 27;						// Set speed of IN19
 8000ef8:	4b3a      	ldr	r3, [pc, #232]	; (8000fe4 <_Z7InitADCv+0x288>)
 8000efa:	691b      	ldr	r3, [r3, #16]
 8000efc:	4a39      	ldr	r2, [pc, #228]	; (8000fe4 <_Z7InitADCv+0x288>)
 8000efe:	f043 5340 	orr.w	r3, r3, #805306368	; 0x30000000
 8000f02:	6113      	str	r3, [r2, #16]
	ADC1->SMPR1 |= 0b110 << 0;						// Set speed of IN20
 8000f04:	4b37      	ldr	r3, [pc, #220]	; (8000fe4 <_Z7InitADCv+0x288>)
 8000f06:	68db      	ldr	r3, [r3, #12]
 8000f08:	4a36      	ldr	r2, [pc, #216]	; (8000fe4 <_Z7InitADCv+0x288>)
 8000f0a:	f043 0306 	orr.w	r3, r3, #6
 8000f0e:	60d3      	str	r3, [r2, #12]
	ADC1->SMPR3 |= 0b110 << 27;						// Set speed of IN9
 8000f10:	4b34      	ldr	r3, [pc, #208]	; (8000fe4 <_Z7InitADCv+0x288>)
 8000f12:	695b      	ldr	r3, [r3, #20]
 8000f14:	4a33      	ldr	r2, [pc, #204]	; (8000fe4 <_Z7InitADCv+0x288>)
 8000f16:	f043 5340 	orr.w	r3, r3, #805306368	; 0x30000000
 8000f1a:	6153      	str	r3, [r2, #20]
	ADC1->SMPR3 |= 0b110 << 24;						// Set speed of IN8
 8000f1c:	4b31      	ldr	r3, [pc, #196]	; (8000fe4 <_Z7InitADCv+0x288>)
 8000f1e:	695b      	ldr	r3, [r3, #20]
 8000f20:	4a30      	ldr	r2, [pc, #192]	; (8000fe4 <_Z7InitADCv+0x288>)
 8000f22:	f043 63c0 	orr.w	r3, r3, #100663296	; 0x6000000
 8000f26:	6153      	str	r3, [r2, #20]
//	ADC1->SMPR1 |= 0b110 << 6;						// Set speed of IN12
//	ADC1->SMPR1 |= 0b110 << 12;						// Set speed of IN14
//	ADC1->SMPR2 |= 0b110 << 21;						// Set speed of IN7
//	ADC1->SMPR1 |= 0b110 << 3;						// Set speed of IN11

	ADC1->CR2 |= ADC_CR2_EOCS;						// Trigger interrupt on end of each individual conversion
 8000f28:	4b2e      	ldr	r3, [pc, #184]	; (8000fe4 <_Z7InitADCv+0x288>)
 8000f2a:	689b      	ldr	r3, [r3, #8]
 8000f2c:	4a2d      	ldr	r2, [pc, #180]	; (8000fe4 <_Z7InitADCv+0x288>)
 8000f2e:	f443 6380 	orr.w	r3, r3, #1024	; 0x400
 8000f32:	6093      	str	r3, [r2, #8]
	ADC1->CR2 |= ADC_CR2_EXTEN_0;					// ADC hardware trigger 00: Trigger detection disabled; 01: Trigger detection on the rising edge; 10: Trigger detection on the falling edge; 11: Trigger detection on both the rising and falling edges
 8000f34:	4b2b      	ldr	r3, [pc, #172]	; (8000fe4 <_Z7InitADCv+0x288>)
 8000f36:	689b      	ldr	r3, [r3, #8]
 8000f38:	4a2a      	ldr	r2, [pc, #168]	; (8000fe4 <_Z7InitADCv+0x288>)
 8000f3a:	f043 5380 	orr.w	r3, r3, #268435456	; 0x10000000
 8000f3e:	6093      	str	r3, [r2, #8]
	ADC1->CR2 |= ADC_CR2_EXTSEL_1 | ADC_CR2_EXTSEL_2;	// ADC External trigger: 0110 = TIM2_TRGO event
 8000f40:	4b28      	ldr	r3, [pc, #160]	; (8000fe4 <_Z7InitADCv+0x288>)
 8000f42:	689b      	ldr	r3, [r3, #8]
 8000f44:	4a27      	ldr	r2, [pc, #156]	; (8000fe4 <_Z7InitADCv+0x288>)
 8000f46:	f043 63c0 	orr.w	r3, r3, #100663296	; 0x6000000
 8000f4a:	6093      	str	r3, [r2, #8]

	// Enable DMA - DMA1, Channel 1  = ADC1 (Manual p255)
	ADC1->CR2 |= ADC_CR2_DMA;						// Enable DMA Mode on ADC
 8000f4c:	4b25      	ldr	r3, [pc, #148]	; (8000fe4 <_Z7InitADCv+0x288>)
 8000f4e:	689b      	ldr	r3, [r3, #8]
 8000f50:	4a24      	ldr	r2, [pc, #144]	; (8000fe4 <_Z7InitADCv+0x288>)
 8000f52:	f443 7380 	orr.w	r3, r3, #256	; 0x100
 8000f56:	6093      	str	r3, [r2, #8]
	ADC1->CR2 |= ADC_CR2_DDS;						// DMA requests are issued as long as data are converted and DMA=1
 8000f58:	4b22      	ldr	r3, [pc, #136]	; (8000fe4 <_Z7InitADCv+0x288>)
 8000f5a:	689b      	ldr	r3, [r3, #8]
 8000f5c:	4a21      	ldr	r2, [pc, #132]	; (8000fe4 <_Z7InitADCv+0x288>)
 8000f5e:	f443 7300 	orr.w	r3, r3, #512	; 0x200
 8000f62:	6093      	str	r3, [r2, #8]
	RCC->AHBENR |= RCC_AHBENR_DMA1EN;
 8000f64:	4b1c      	ldr	r3, [pc, #112]	; (8000fd8 <_Z7InitADCv+0x27c>)
 8000f66:	69db      	ldr	r3, [r3, #28]
 8000f68:	4a1b      	ldr	r2, [pc, #108]	; (8000fd8 <_Z7InitADCv+0x27c>)
 8000f6a:	f043 7380 	orr.w	r3, r3, #16777216	; 0x1000000
 8000f6e:	61d3      	str	r3, [r2, #28]

	DMA1_Channel1->CCR &= ~DMA_CCR_DIR;				// 00 = Peripheral-to-memory
 8000f70:	4b1d      	ldr	r3, [pc, #116]	; (8000fe8 <_Z7InitADCv+0x28c>)
 8000f72:	681b      	ldr	r3, [r3, #0]
 8000f74:	4a1c      	ldr	r2, [pc, #112]	; (8000fe8 <_Z7InitADCv+0x28c>)
 8000f76:	f023 0310 	bic.w	r3, r3, #16
 8000f7a:	6013      	str	r3, [r2, #0]
	DMA1_Channel1->CCR |= DMA_CCR_PL_1;				// Priority: 00 = low; 01 = Medium; 10 = High; 11 = Very High
 8000f7c:	4b1a      	ldr	r3, [pc, #104]	; (8000fe8 <_Z7InitADCv+0x28c>)
 8000f7e:	681b      	ldr	r3, [r3, #0]
 8000f80:	4a19      	ldr	r2, [pc, #100]	; (8000fe8 <_Z7InitADCv+0x28c>)
 8000f82:	f443 5300 	orr.w	r3, r3, #8192	; 0x2000
 8000f86:	6013      	str	r3, [r2, #0]
	DMA1_Channel1->CCR |= DMA_CCR_PSIZE_0;			// Peripheral size: 8 bit; 01 = 16 bit; 10 = 32 bit
 8000f88:	4b17      	ldr	r3, [pc, #92]	; (8000fe8 <_Z7InitADCv+0x28c>)
 8000f8a:	681b      	ldr	r3, [r3, #0]
 8000f8c:	4a16      	ldr	r2, [pc, #88]	; (8000fe8 <_Z7InitADCv+0x28c>)
 8000f8e:	f443 7380 	orr.w	r3, r3, #256	; 0x100
 8000f92:	6013      	str	r3, [r2, #0]
	DMA1_Channel1->CCR |= DMA_CCR_MSIZE_0;			// Memory size: 8 bit; 01 = 16 bit; 10 = 32 bit
 8000f94:	4b14      	ldr	r3, [pc, #80]	; (8000fe8 <_Z7InitADCv+0x28c>)
 8000f96:	681b      	ldr	r3, [r3, #0]
 8000f98:	4a13      	ldr	r2, [pc, #76]	; (8000fe8 <_Z7InitADCv+0x28c>)
 8000f9a:	f443 6380 	orr.w	r3, r3, #1024	; 0x400
 8000f9e:	6013      	str	r3, [r2, #0]
	DMA1_Channel1->CCR &= ~DMA_CCR_PINC;			// Peripheral not in increment mode
 8000fa0:	4b11      	ldr	r3, [pc, #68]	; (8000fe8 <_Z7InitADCv+0x28c>)
 8000fa2:	681b      	ldr	r3, [r3, #0]
 8000fa4:	4a10      	ldr	r2, [pc, #64]	; (8000fe8 <_Z7InitADCv+0x28c>)
 8000fa6:	f023 0340 	bic.w	r3, r3, #64	; 0x40
 8000faa:	6013      	str	r3, [r2, #0]
	DMA1_Channel1->CCR |= DMA_CCR_MINC;				// Memory in increment mode
 8000fac:	4b0e      	ldr	r3, [pc, #56]	; (8000fe8 <_Z7InitADCv+0x28c>)
 8000fae:	681b      	ldr	r3, [r3, #0]
 8000fb0:	4a0d      	ldr	r2, [pc, #52]	; (8000fe8 <_Z7InitADCv+0x28c>)
 8000fb2:	f043 0380 	orr.w	r3, r3, #128	; 0x80
 8000fb6:	6013      	str	r3, [r2, #0]
	DMA1_Channel1->CCR |= DMA_CCR_CIRC;				// circular mode to keep refilling buffer
 8000fb8:	4b0b      	ldr	r3, [pc, #44]	; (8000fe8 <_Z7InitADCv+0x28c>)
 8000fba:	681b      	ldr	r3, [r3, #0]
 8000fbc:	4a0a      	ldr	r2, [pc, #40]	; (8000fe8 <_Z7InitADCv+0x28c>)
 8000fbe:	f043 0320 	orr.w	r3, r3, #32
 8000fc2:	6013      	str	r3, [r2, #0]
	DMA1_Channel1->CCR &= ~DMA_CCR_DIR;				// data transfer direction: 00: peripheral-to-memory; 01: memory-to-peripheral; 10: memory-to-memory
 8000fc4:	4b08      	ldr	r3, [pc, #32]	; (8000fe8 <_Z7InitADCv+0x28c>)
 8000fc6:	681b      	ldr	r3, [r3, #0]
 8000fc8:	4a07      	ldr	r2, [pc, #28]	; (8000fe8 <_Z7InitADCv+0x28c>)
 8000fca:	f023 0310 	bic.w	r3, r3, #16
 8000fce:	6013      	str	r3, [r2, #0]

	DMA1_Channel1->CNDTR |= ADC_BUFFER_LENGTH * 4;	// Number of data items to transfer (ie size of ADC buffer)
 8000fd0:	4b05      	ldr	r3, [pc, #20]	; (8000fe8 <_Z7InitADCv+0x28c>)
 8000fd2:	685b      	ldr	r3, [r3, #4]
 8000fd4:	e00a      	b.n	8000fec <_Z7InitADCv+0x290>
 8000fd6:	bf00      	nop
 8000fd8:	40023800 	.word	0x40023800
 8000fdc:	40020000 	.word	0x40020000
 8000fe0:	40020400 	.word	0x40020400
 8000fe4:	40012400 	.word	0x40012400
 8000fe8:	40026008 	.word	0x40026008
 8000fec:	4a0c      	ldr	r2, [pc, #48]	; (8001020 <_Z7InitADCv+0x2c4>)
 8000fee:	f043 0314 	orr.w	r3, r3, #20
 8000ff2:	6053      	str	r3, [r2, #4]
	DMA1_Channel1->CPAR = (uint32_t)(&(ADC1->DR));	// Configure the peripheral data register address
 8000ff4:	4b0a      	ldr	r3, [pc, #40]	; (8001020 <_Z7InitADCv+0x2c4>)
 8000ff6:	4a0b      	ldr	r2, [pc, #44]	; (8001024 <_Z7InitADCv+0x2c8>)
 8000ff8:	609a      	str	r2, [r3, #8]
	DMA1_Channel1->CMAR = (uint32_t)(ADC_array);	// Configure the memory address (note that M1AR is used for double-buffer mode)
 8000ffa:	4b09      	ldr	r3, [pc, #36]	; (8001020 <_Z7InitADCv+0x2c4>)
 8000ffc:	4a0a      	ldr	r2, [pc, #40]	; (8001028 <_Z7InitADCv+0x2cc>)
 8000ffe:	60da      	str	r2, [r3, #12]
	//DMA1_Channel1->CCR |= DMA_CCR_CHSEL_0;		// channel select to 1 for ADC2

	DMA1_Channel1->CCR |= DMA_CCR_EN;				// Enable DMA2
 8001000:	4b07      	ldr	r3, [pc, #28]	; (8001020 <_Z7InitADCv+0x2c4>)
 8001002:	681b      	ldr	r3, [r3, #0]
 8001004:	4a06      	ldr	r2, [pc, #24]	; (8001020 <_Z7InitADCv+0x2c4>)
 8001006:	f043 0301 	orr.w	r3, r3, #1
 800100a:	6013      	str	r3, [r2, #0]
	ADC1->CR2 |= ADC_CR2_ADON;						// Activate ADC
 800100c:	4b07      	ldr	r3, [pc, #28]	; (800102c <_Z7InitADCv+0x2d0>)
 800100e:	689b      	ldr	r3, [r3, #8]
 8001010:	4a06      	ldr	r2, [pc, #24]	; (800102c <_Z7InitADCv+0x2d0>)
 8001012:	f043 0301 	orr.w	r3, r3, #1
 8001016:	6093      	str	r3, [r2, #8]
}
 8001018:	bf00      	nop
 800101a:	46bd      	mov	sp, r7
 800101c:	bc80      	pop	{r7}
 800101e:	4770      	bx	lr
 8001020:	40026008 	.word	0x40026008
 8001024:	40012458 	.word	0x40012458
 8001028:	20000090 	.word	0x20000090
 800102c:	40012400 	.word	0x40012400

08001030 <_Z6InitIOv>:

void InitIO()
{
 8001030:	b480      	push	{r7}
 8001032:	af00      	add	r7, sp, #0
	RCC->AHBENR |= RCC_AHBENR_GPIOAEN;			// reset and clock control - advanced high performance bus - GPIO port A
 8001034:	4b0a      	ldr	r3, [pc, #40]	; (8001060 <_Z6InitIOv+0x30>)
 8001036:	69db      	ldr	r3, [r3, #28]
 8001038:	4a09      	ldr	r2, [pc, #36]	; (8001060 <_Z6InitIOv+0x30>)
 800103a:	f043 0301 	orr.w	r3, r3, #1
 800103e:	61d3      	str	r3, [r2, #28]
	RCC->AHBENR |= RCC_AHBENR_GPIOBEN;			// reset and clock control - advanced high performance bus - GPIO port B
 8001040:	4b07      	ldr	r3, [pc, #28]	; (8001060 <_Z6InitIOv+0x30>)
 8001042:	69db      	ldr	r3, [r3, #28]
 8001044:	4a06      	ldr	r2, [pc, #24]	; (8001060 <_Z6InitIOv+0x30>)
 8001046:	f043 0302 	orr.w	r3, r3, #2
 800104a:	61d3      	str	r3, [r2, #28]
	RCC->AHBENR |= RCC_AHBENR_GPIOCEN;			// reset and clock control - advanced high performance bus - GPIO port C
 800104c:	4b04      	ldr	r3, [pc, #16]	; (8001060 <_Z6InitIOv+0x30>)
 800104e:	69db      	ldr	r3, [r3, #28]
 8001050:	4a03      	ldr	r2, [pc, #12]	; (8001060 <_Z6InitIOv+0x30>)
 8001052:	f043 0304 	orr.w	r3, r3, #4
 8001056:	61d3      	str	r3, [r2, #28]
}
 8001058:	bf00      	nop
 800105a:	46bd      	mov	sp, r7
 800105c:	bc80      	pop	{r7}
 800105e:	4770      	bx	lr
 8001060:	40023800 	.word	0x40023800

08001064 <_Z7InitSPIv>:
}

*/

void InitSPI()
{
 8001064:	b480      	push	{r7}
 8001066:	af00      	add	r7, sp, #0
	//	Enable GPIO and SPI clocks
	RCC->AHBENR |= RCC_AHBENR_GPIOAEN;			// reset and clock control - advanced high performance bus - GPIO port A
 8001068:	4b3a      	ldr	r3, [pc, #232]	; (8001154 <_Z7InitSPIv+0xf0>)
 800106a:	69db      	ldr	r3, [r3, #28]
 800106c:	4a39      	ldr	r2, [pc, #228]	; (8001154 <_Z7InitSPIv+0xf0>)
 800106e:	f043 0301 	orr.w	r3, r3, #1
 8001072:	61d3      	str	r3, [r2, #28]
	RCC->AHBENR |= RCC_AHBENR_GPIOBEN;			// reset and clock control - advanced high performance bus - GPIO port B
 8001074:	4b37      	ldr	r3, [pc, #220]	; (8001154 <_Z7InitSPIv+0xf0>)
 8001076:	69db      	ldr	r3, [r3, #28]
 8001078:	4a36      	ldr	r2, [pc, #216]	; (8001154 <_Z7InitSPIv+0xf0>)
 800107a:	f043 0302 	orr.w	r3, r3, #2
 800107e:	61d3      	str	r3, [r2, #28]
	RCC->APB2ENR |= RCC_APB2ENR_SPI1EN;
 8001080:	4b34      	ldr	r3, [pc, #208]	; (8001154 <_Z7InitSPIv+0xf0>)
 8001082:	6a1b      	ldr	r3, [r3, #32]
 8001084:	4a33      	ldr	r2, [pc, #204]	; (8001154 <_Z7InitSPIv+0xf0>)
 8001086:	f443 5380 	orr.w	r3, r3, #4096	; 0x1000
 800108a:	6213      	str	r3, [r2, #32]

	// PB5 (57): SPI_MOSI [alternate function AF5]
	GPIOB->MODER |= GPIO_MODER_MODER5_1;			// 00: Input (reset state)	01: General purpose output mode	10: Alternate function mode	11: Analog mode
 800108c:	4b32      	ldr	r3, [pc, #200]	; (8001158 <_Z7InitSPIv+0xf4>)
 800108e:	681b      	ldr	r3, [r3, #0]
 8001090:	4a31      	ldr	r2, [pc, #196]	; (8001158 <_Z7InitSPIv+0xf4>)
 8001092:	f443 6300 	orr.w	r3, r3, #2048	; 0x800
 8001096:	6013      	str	r3, [r2, #0]
	GPIOB->OSPEEDR |= GPIO_OSPEEDER_OSPEEDR5;		// V High  - 00: Low speed; 01: Medium speed; 10: High speed; 11: Very high speed
 8001098:	4b2f      	ldr	r3, [pc, #188]	; (8001158 <_Z7InitSPIv+0xf4>)
 800109a:	689b      	ldr	r3, [r3, #8]
 800109c:	4a2e      	ldr	r2, [pc, #184]	; (8001158 <_Z7InitSPIv+0xf4>)
 800109e:	f443 6340 	orr.w	r3, r3, #3072	; 0xc00
 80010a2:	6093      	str	r3, [r2, #8]
	GPIOB->AFR[0] |= 0b0101 << 20;					// 0b0110 = Alternate Function 5 (SPI1); 20 is position of Pin 5
 80010a4:	4b2c      	ldr	r3, [pc, #176]	; (8001158 <_Z7InitSPIv+0xf4>)
 80010a6:	6a1b      	ldr	r3, [r3, #32]
 80010a8:	4a2b      	ldr	r2, [pc, #172]	; (8001158 <_Z7InitSPIv+0xf4>)
 80010aa:	f443 03a0 	orr.w	r3, r3, #5242880	; 0x500000
 80010ae:	6213      	str	r3, [r2, #32]

	// PB3 (55) SPI_SCK [alternate function AF5]
	GPIOB->MODER &= ~GPIO_MODER_MODER3;				// Reset value of PB3 is 0b10
 80010b0:	4b29      	ldr	r3, [pc, #164]	; (8001158 <_Z7InitSPIv+0xf4>)
 80010b2:	681b      	ldr	r3, [r3, #0]
 80010b4:	4a28      	ldr	r2, [pc, #160]	; (8001158 <_Z7InitSPIv+0xf4>)
 80010b6:	f023 03c0 	bic.w	r3, r3, #192	; 0xc0
 80010ba:	6013      	str	r3, [r2, #0]
	GPIOB->MODER |= GPIO_MODER_MODER3_1;			// 00: Input (reset state)	01: General purpose output mode	10: Alternate function mode	11: Analog mode
 80010bc:	4b26      	ldr	r3, [pc, #152]	; (8001158 <_Z7InitSPIv+0xf4>)
 80010be:	681b      	ldr	r3, [r3, #0]
 80010c0:	4a25      	ldr	r2, [pc, #148]	; (8001158 <_Z7InitSPIv+0xf4>)
 80010c2:	f043 0380 	orr.w	r3, r3, #128	; 0x80
 80010c6:	6013      	str	r3, [r2, #0]
	GPIOB->OSPEEDR |= GPIO_OSPEEDER_OSPEEDR3;		// V High  - 00: Low speed; 01: Medium speed; 10: High speed; 11: Very high speed
 80010c8:	4b23      	ldr	r3, [pc, #140]	; (8001158 <_Z7InitSPIv+0xf4>)
 80010ca:	689b      	ldr	r3, [r3, #8]
 80010cc:	4a22      	ldr	r2, [pc, #136]	; (8001158 <_Z7InitSPIv+0xf4>)
 80010ce:	f043 03c0 	orr.w	r3, r3, #192	; 0xc0
 80010d2:	6093      	str	r3, [r2, #8]
	GPIOB->AFR[0] |= 0b0101 << 12;					// 0b0110 = Alternate Function 5 (SPI1); 12 is position of Pin 3
 80010d4:	4b20      	ldr	r3, [pc, #128]	; (8001158 <_Z7InitSPIv+0xf4>)
 80010d6:	6a1b      	ldr	r3, [r3, #32]
 80010d8:	4a1f      	ldr	r2, [pc, #124]	; (8001158 <_Z7InitSPIv+0xf4>)
 80010da:	f443 43a0 	orr.w	r3, r3, #20480	; 0x5000
 80010de:	6213      	str	r3, [r2, #32]

	// PA15 (50) Software NSS
	GPIOA->MODER |= GPIO_MODER_MODER15_0;			// 00: Input (reset state)	01: General purpose output mode	10: Alternate function mode	11: Analog mode
 80010e0:	4b1e      	ldr	r3, [pc, #120]	; (800115c <_Z7InitSPIv+0xf8>)
 80010e2:	681b      	ldr	r3, [r3, #0]
 80010e4:	4a1d      	ldr	r2, [pc, #116]	; (800115c <_Z7InitSPIv+0xf8>)
 80010e6:	f043 4380 	orr.w	r3, r3, #1073741824	; 0x40000000
 80010ea:	6013      	str	r3, [r2, #0]
	GPIOA->MODER &= ~GPIO_MODER_MODER15_1;
 80010ec:	4b1b      	ldr	r3, [pc, #108]	; (800115c <_Z7InitSPIv+0xf8>)
 80010ee:	681b      	ldr	r3, [r3, #0]
 80010f0:	4a1a      	ldr	r2, [pc, #104]	; (800115c <_Z7InitSPIv+0xf8>)
 80010f2:	f023 4300 	bic.w	r3, r3, #2147483648	; 0x80000000
 80010f6:	6013      	str	r3, [r2, #0]
	GPIOA->BSRR |= GPIO_BSRR_BS_15;
 80010f8:	4b18      	ldr	r3, [pc, #96]	; (800115c <_Z7InitSPIv+0xf8>)
 80010fa:	699b      	ldr	r3, [r3, #24]
 80010fc:	4a17      	ldr	r2, [pc, #92]	; (800115c <_Z7InitSPIv+0xf8>)
 80010fe:	f443 4300 	orr.w	r3, r3, #32768	; 0x8000
 8001102:	6193      	str	r3, [r2, #24]

	// Configure SPI
	SPI1->CR1 |= SPI_CR1_DFF;						// Use 16 bit data frame
 8001104:	4b16      	ldr	r3, [pc, #88]	; (8001160 <_Z7InitSPIv+0xfc>)
 8001106:	681b      	ldr	r3, [r3, #0]
 8001108:	4a15      	ldr	r2, [pc, #84]	; (8001160 <_Z7InitSPIv+0xfc>)
 800110a:	f443 6300 	orr.w	r3, r3, #2048	; 0x800
 800110e:	6013      	str	r3, [r2, #0]
	SPI1->CR1 |= SPI_CR1_SSM;						// Software slave management: When SSM bit is set, NSS pin input is replaced with the value from the SSI bit
 8001110:	4b13      	ldr	r3, [pc, #76]	; (8001160 <_Z7InitSPIv+0xfc>)
 8001112:	681b      	ldr	r3, [r3, #0]
 8001114:	4a12      	ldr	r2, [pc, #72]	; (8001160 <_Z7InitSPIv+0xfc>)
 8001116:	f443 7300 	orr.w	r3, r3, #512	; 0x200
 800111a:	6013      	str	r3, [r2, #0]
	SPI1->CR1 |= SPI_CR1_SSI;						// Internal slave select
 800111c:	4b10      	ldr	r3, [pc, #64]	; (8001160 <_Z7InitSPIv+0xfc>)
 800111e:	681b      	ldr	r3, [r3, #0]
 8001120:	4a0f      	ldr	r2, [pc, #60]	; (8001160 <_Z7InitSPIv+0xfc>)
 8001122:	f443 7380 	orr.w	r3, r3, #256	; 0x100
 8001126:	6013      	str	r3, [r2, #0]
	SPI1->CR1 |= SPI_CR1_BR_2;						// Baud rate control prescaler: 0b001: fPCLK/4; 0b100: fPCLK/32
 8001128:	4b0d      	ldr	r3, [pc, #52]	; (8001160 <_Z7InitSPIv+0xfc>)
 800112a:	681b      	ldr	r3, [r3, #0]
 800112c:	4a0c      	ldr	r2, [pc, #48]	; (8001160 <_Z7InitSPIv+0xfc>)
 800112e:	f043 0320 	orr.w	r3, r3, #32
 8001132:	6013      	str	r3, [r2, #0]
	SPI1->CR1 |= SPI_CR1_MSTR;						// Master selection
 8001134:	4b0a      	ldr	r3, [pc, #40]	; (8001160 <_Z7InitSPIv+0xfc>)
 8001136:	681b      	ldr	r3, [r3, #0]
 8001138:	4a09      	ldr	r2, [pc, #36]	; (8001160 <_Z7InitSPIv+0xfc>)
 800113a:	f043 0304 	orr.w	r3, r3, #4
 800113e:	6013      	str	r3, [r2, #0]

	SPI1->CR1 |= SPI_CR1_SPE;						// Enable SPI
 8001140:	4b07      	ldr	r3, [pc, #28]	; (8001160 <_Z7InitSPIv+0xfc>)
 8001142:	681b      	ldr	r3, [r3, #0]
 8001144:	4a06      	ldr	r2, [pc, #24]	; (8001160 <_Z7InitSPIv+0xfc>)
 8001146:	f043 0340 	orr.w	r3, r3, #64	; 0x40
 800114a:	6013      	str	r3, [r2, #0]
}
 800114c:	bf00      	nop
 800114e:	46bd      	mov	sp, r7
 8001150:	bc80      	pop	{r7}
 8001152:	4770      	bx	lr
 8001154:	40023800 	.word	0x40023800
 8001158:	40020400 	.word	0x40020400
 800115c:	40020000 	.word	0x40020000
 8001160:	40013000 	.word	0x40013000

08001164 <_Z11sendSPIDatat>:
	SPI1->DR = 0xAABB;

}


void sendSPIData(uint16_t data) {
 8001164:	b480      	push	{r7}
 8001166:	b083      	sub	sp, #12
 8001168:	af00      	add	r7, sp, #0
 800116a:	4603      	mov	r3, r0
 800116c:	80fb      	strh	r3, [r7, #6]
	while (((SPI1->SR & SPI_SR_TXE) == 0) | ((SPI1->SR & SPI_SR_BSY) == SPI_SR_BSY) );
 800116e:	4b12      	ldr	r3, [pc, #72]	; (80011b8 <_Z11sendSPIDatat+0x54>)
 8001170:	689b      	ldr	r3, [r3, #8]
 8001172:	f003 0302 	and.w	r3, r3, #2
 8001176:	2b00      	cmp	r3, #0
 8001178:	bf0c      	ite	eq
 800117a:	2301      	moveq	r3, #1
 800117c:	2300      	movne	r3, #0
 800117e:	b2da      	uxtb	r2, r3
 8001180:	4b0d      	ldr	r3, [pc, #52]	; (80011b8 <_Z11sendSPIDatat+0x54>)
 8001182:	689b      	ldr	r3, [r3, #8]
 8001184:	f003 0380 	and.w	r3, r3, #128	; 0x80
 8001188:	2b80      	cmp	r3, #128	; 0x80
 800118a:	bf0c      	ite	eq
 800118c:	2301      	moveq	r3, #1
 800118e:	2300      	movne	r3, #0
 8001190:	b2db      	uxtb	r3, r3
 8001192:	4313      	orrs	r3, r2
 8001194:	b2db      	uxtb	r3, r3
 8001196:	2b00      	cmp	r3, #0
 8001198:	d000      	beq.n	800119c <_Z11sendSPIDatat+0x38>
 800119a:	e7e8      	b.n	800116e <_Z11sendSPIDatat+0xa>
	GPIOA->BSRR |= GPIO_BSRR_BR_15;
 800119c:	4b07      	ldr	r3, [pc, #28]	; (80011bc <_Z11sendSPIDatat+0x58>)
 800119e:	699b      	ldr	r3, [r3, #24]
 80011a0:	4a06      	ldr	r2, [pc, #24]	; (80011bc <_Z11sendSPIDatat+0x58>)
 80011a2:	f043 4300 	orr.w	r3, r3, #2147483648	; 0x80000000
 80011a6:	6193      	str	r3, [r2, #24]
	SPI1->DR = data;		// Send cmd data [X X C C C A A A]
 80011a8:	4a03      	ldr	r2, [pc, #12]	; (80011b8 <_Z11sendSPIDatat+0x54>)
 80011aa:	88fb      	ldrh	r3, [r7, #6]
 80011ac:	60d3      	str	r3, [r2, #12]
}
 80011ae:	bf00      	nop
 80011b0:	370c      	adds	r7, #12
 80011b2:	46bd      	mov	sp, r7
 80011b4:	bc80      	pop	{r7}
 80011b6:	4770      	bx	lr
 80011b8:	40013000 	.word	0x40013000
 80011bc:	40020000 	.word	0x40020000

080011c0 <_Z8clearSPIv>:

void clearSPI() {
 80011c0:	b480      	push	{r7}
 80011c2:	af00      	add	r7, sp, #0
	while (((SPI1->SR & SPI_SR_TXE) == 0) | ((SPI1->SR & SPI_SR_BSY) == SPI_SR_BSY) );
 80011c4:	4b10      	ldr	r3, [pc, #64]	; (8001208 <_Z8clearSPIv+0x48>)
 80011c6:	689b      	ldr	r3, [r3, #8]
 80011c8:	f003 0302 	and.w	r3, r3, #2
 80011cc:	2b00      	cmp	r3, #0
 80011ce:	bf0c      	ite	eq
 80011d0:	2301      	moveq	r3, #1
 80011d2:	2300      	movne	r3, #0
 80011d4:	b2da      	uxtb	r2, r3
 80011d6:	4b0c      	ldr	r3, [pc, #48]	; (8001208 <_Z8clearSPIv+0x48>)
 80011d8:	689b      	ldr	r3, [r3, #8]
 80011da:	f003 0380 	and.w	r3, r3, #128	; 0x80
 80011de:	2b80      	cmp	r3, #128	; 0x80
 80011e0:	bf0c      	ite	eq
 80011e2:	2301      	moveq	r3, #1
 80011e4:	2300      	movne	r3, #0
 80011e6:	b2db      	uxtb	r3, r3
 80011e8:	4313      	orrs	r3, r2
 80011ea:	b2db      	uxtb	r3, r3
 80011ec:	2b00      	cmp	r3, #0
 80011ee:	d000      	beq.n	80011f2 <_Z8clearSPIv+0x32>
 80011f0:	e7e8      	b.n	80011c4 <_Z8clearSPIv+0x4>
	GPIOA->BSRR |= GPIO_BSRR_BS_15;
 80011f2:	4b06      	ldr	r3, [pc, #24]	; (800120c <_Z8clearSPIv+0x4c>)
 80011f4:	699b      	ldr	r3, [r3, #24]
 80011f6:	4a05      	ldr	r2, [pc, #20]	; (800120c <_Z8clearSPIv+0x4c>)
 80011f8:	f443 4300 	orr.w	r3, r3, #32768	; 0x8000
 80011fc:	6193      	str	r3, [r2, #24]
}
 80011fe:	bf00      	nop
 8001200:	46bd      	mov	sp, r7
 8001202:	bc80      	pop	{r7}
 8001204:	4770      	bx	lr
 8001206:	bf00      	nop
 8001208:	40013000 	.word	0x40013000
 800120c:	40020000 	.word	0x40020000

08001210 <_Z12InitSPITimerv>:


//	Setup Timer 3 on an interrupt to trigger SPI data send
void InitSPITimer() {
 8001210:	b580      	push	{r7, lr}
 8001212:	af00      	add	r7, sp, #0
	RCC->APB1ENR |= RCC_APB1ENR_TIM3EN;				// Enable Timer 3
 8001214:	4b13      	ldr	r3, [pc, #76]	; (8001264 <_Z12InitSPITimerv+0x54>)
 8001216:	6a5b      	ldr	r3, [r3, #36]	; 0x24
 8001218:	4a12      	ldr	r2, [pc, #72]	; (8001264 <_Z12InitSPITimerv+0x54>)
 800121a:	f043 0302 	orr.w	r3, r3, #2
 800121e:	6253      	str	r3, [r2, #36]	; 0x24
	TIM3->PSC = 50;									// Set prescaler
 8001220:	4b11      	ldr	r3, [pc, #68]	; (8001268 <_Z12InitSPITimerv+0x58>)
 8001222:	2232      	movs	r2, #50	; 0x32
 8001224:	629a      	str	r2, [r3, #40]	; 0x28
	TIM3->ARR = 400; 								// Set auto reload register
 8001226:	4b10      	ldr	r3, [pc, #64]	; (8001268 <_Z12InitSPITimerv+0x58>)
 8001228:	f44f 72c8 	mov.w	r2, #400	; 0x190
 800122c:	62da      	str	r2, [r3, #44]	; 0x2c

	TIM3->DIER |= TIM_DIER_UIE;						// DMA/interrupt enable register
 800122e:	4b0e      	ldr	r3, [pc, #56]	; (8001268 <_Z12InitSPITimerv+0x58>)
 8001230:	68db      	ldr	r3, [r3, #12]
 8001232:	4a0d      	ldr	r2, [pc, #52]	; (8001268 <_Z12InitSPITimerv+0x58>)
 8001234:	f043 0301 	orr.w	r3, r3, #1
 8001238:	60d3      	str	r3, [r2, #12]
	NVIC_EnableIRQ(TIM3_IRQn);
 800123a:	201d      	movs	r0, #29
 800123c:	f7ff fcb4 	bl	8000ba8 <__NVIC_EnableIRQ>
	NVIC_SetPriority(TIM3_IRQn, 0);					// Lower is higher priority
 8001240:	2100      	movs	r1, #0
 8001242:	201d      	movs	r0, #29
 8001244:	f7ff fcce 	bl	8000be4 <__NVIC_SetPriority>

	TIM3->CR1 |= TIM_CR1_CEN;
 8001248:	4b07      	ldr	r3, [pc, #28]	; (8001268 <_Z12InitSPITimerv+0x58>)
 800124a:	681b      	ldr	r3, [r3, #0]
 800124c:	4a06      	ldr	r2, [pc, #24]	; (8001268 <_Z12InitSPITimerv+0x58>)
 800124e:	f043 0301 	orr.w	r3, r3, #1
 8001252:	6013      	str	r3, [r2, #0]
	TIM3->EGR |= TIM_EGR_UG;						//  Re-initializes counter and generates update of registers
 8001254:	4b04      	ldr	r3, [pc, #16]	; (8001268 <_Z12InitSPITimerv+0x58>)
 8001256:	695b      	ldr	r3, [r3, #20]
 8001258:	4a03      	ldr	r2, [pc, #12]	; (8001268 <_Z12InitSPITimerv+0x58>)
 800125a:	f043 0301 	orr.w	r3, r3, #1
 800125e:	6153      	str	r3, [r2, #20]
}
 8001260:	bf00      	nop
 8001262:	bd80      	pop	{r7, pc}
 8001264:	40023800 	.word	0x40023800
 8001268:	40000400 	.word	0x40000400

0800126c <_ZSt3powff>:
  using ::pow;

#ifndef __CORRECT_ISO_CPP_MATH_H_PROTO
  inline _GLIBCXX_CONSTEXPR float
  pow(float __x, float __y)
  { return __builtin_powf(__x, __y); }
 800126c:	b580      	push	{r7, lr}
 800126e:	b082      	sub	sp, #8
 8001270:	af00      	add	r7, sp, #0
 8001272:	6078      	str	r0, [r7, #4]
 8001274:	6039      	str	r1, [r7, #0]
 8001276:	6839      	ldr	r1, [r7, #0]
 8001278:	6878      	ldr	r0, [r7, #4]
 800127a:	f000 fbbd 	bl	80019f8 <powf>
 800127e:	4603      	mov	r3, r0
 8001280:	4618      	mov	r0, r3
 8001282:	3708      	adds	r7, #8
 8001284:	46bd      	mov	sp, r7
 8001286:	bd80      	pop	{r7, pc}

08001288 <ADC1_IRQHandler>:
void ADC1_IRQHandler(void) {
 8001288:	b480      	push	{r7}
 800128a:	b083      	sub	sp, #12
 800128c:	af00      	add	r7, sp, #0

	uint16_t adcval = ADC1->DR;
 800128e:	4b04      	ldr	r3, [pc, #16]	; (80012a0 <ADC1_IRQHandler+0x18>)
 8001290:	6d9b      	ldr	r3, [r3, #88]	; 0x58
 8001292:	80fb      	strh	r3, [r7, #6]
}
 8001294:	bf00      	nop
 8001296:	370c      	adds	r7, #12
 8001298:	46bd      	mov	sp, r7
 800129a:	bc80      	pop	{r7}
 800129c:	4770      	bx	lr
 800129e:	bf00      	nop
 80012a0:	40012400 	.word	0x40012400

080012a4 <TIM3_IRQHandler>:


// SPI Send timer
void TIM3_IRQHandler(void) {
 80012a4:	b590      	push	{r4, r7, lr}
 80012a6:	b08b      	sub	sp, #44	; 0x2c
 80012a8:	af00      	add	r7, sp, #0
	// create macro to enable summing of four most recent values of ADC regardless of how many ADC samples are in the buffer
	#define ADC_SUM(x) (ADC_array[x] + ADC_array[ADC_BUFFER_LENGTH + x] + ADC_array[ADC_BUFFER_LENGTH * 2 + x] + ADC_array[ADC_BUFFER_LENGTH * 3 + x])

	TIM3->SR &= ~TIM_SR_UIF;					// clear UIF flag
 80012aa:	4b9e      	ldr	r3, [pc, #632]	; (8001524 <TIM3_IRQHandler+0x280>)
 80012ac:	691b      	ldr	r3, [r3, #16]
 80012ae:	4a9d      	ldr	r2, [pc, #628]	; (8001524 <TIM3_IRQHandler+0x280>)
 80012b0:	f023 0301 	bic.w	r3, r3, #1
 80012b4:	6113      	str	r3, [r2, #16]
	//sendSPIData((uint16_t)0);

	// Pitch calculations - Increase 2270 to increase pitch; Reduce ABS(610) to increase spread
	pitch = (float)((ADC_SUM(0)) >> 2);
 80012b6:	4b9c      	ldr	r3, [pc, #624]	; (8001528 <TIM3_IRQHandler+0x284>)
 80012b8:	881b      	ldrh	r3, [r3, #0]
 80012ba:	b29b      	uxth	r3, r3
 80012bc:	461a      	mov	r2, r3
 80012be:	4b9a      	ldr	r3, [pc, #616]	; (8001528 <TIM3_IRQHandler+0x284>)
 80012c0:	895b      	ldrh	r3, [r3, #10]
 80012c2:	b29b      	uxth	r3, r3
 80012c4:	4413      	add	r3, r2
 80012c6:	4a98      	ldr	r2, [pc, #608]	; (8001528 <TIM3_IRQHandler+0x284>)
 80012c8:	8a92      	ldrh	r2, [r2, #20]
 80012ca:	b292      	uxth	r2, r2
 80012cc:	4413      	add	r3, r2
 80012ce:	4a96      	ldr	r2, [pc, #600]	; (8001528 <TIM3_IRQHandler+0x284>)
 80012d0:	8bd2      	ldrh	r2, [r2, #30]
 80012d2:	b292      	uxth	r2, r2
 80012d4:	4413      	add	r3, r2
 80012d6:	109b      	asrs	r3, r3, #2
 80012d8:	4618      	mov	r0, r3
 80012da:	f7ff fa15 	bl	8000708 <__aeabi_i2f>
 80012de:	4602      	mov	r2, r0
 80012e0:	4b92      	ldr	r3, [pc, #584]	; (800152c <TIM3_IRQHandler+0x288>)
 80012e2:	601a      	str	r2, [r3, #0]
	//freq = 2270.0f * std::pow(2.0f, pitch / -610.0f);			// for cycle length matching sample rate (48k)
	freq = 3750.0f * std::pow(2.0f, pitch / -590.0f);			// for cycle length of 65k
 80012e4:	4b91      	ldr	r3, [pc, #580]	; (800152c <TIM3_IRQHandler+0x288>)
 80012e6:	681b      	ldr	r3, [r3, #0]
 80012e8:	4991      	ldr	r1, [pc, #580]	; (8001530 <TIM3_IRQHandler+0x28c>)
 80012ea:	4618      	mov	r0, r3
 80012ec:	f7ff fb14 	bl	8000918 <__aeabi_fdiv>
 80012f0:	4603      	mov	r3, r0
 80012f2:	4619      	mov	r1, r3
 80012f4:	f04f 4080 	mov.w	r0, #1073741824	; 0x40000000
 80012f8:	f7ff ffb8 	bl	800126c <_ZSt3powff>
 80012fc:	4603      	mov	r3, r0
 80012fe:	498d      	ldr	r1, [pc, #564]	; (8001534 <TIM3_IRQHandler+0x290>)
 8001300:	4618      	mov	r0, r3
 8001302:	f7ff fa55 	bl	80007b0 <__aeabi_fmul>
 8001306:	4603      	mov	r3, r0
 8001308:	461a      	mov	r2, r3
 800130a:	4b8b      	ldr	r3, [pc, #556]	; (8001538 <TIM3_IRQHandler+0x294>)
 800130c:	601a      	str	r2, [r3, #0]
	uint16_t minLevel = 140;
	startVol = minLevel + (harmScale * (255 - minLevel) / 255);
	outputVal = ((uint8_t)harmScale) | (startVol << 8);
	sendSPIData(outputVal);
	 */
	constexpr float maxScale = 2047.0f;
 800130e:	4b8b      	ldr	r3, [pc, #556]	; (800153c <TIM3_IRQHandler+0x298>)
 8001310:	627b      	str	r3, [r7, #36]	; 0x24
	constexpr uint8_t scaleInit = std::log2(std::pow(2, 14) / (maxScale + 1));
 8001312:	2303      	movs	r3, #3
 8001314:	f887 3023 	strb.w	r3, [r7, #35]	; 0x23
	constexpr float scaleDivisor = maxScale / std::log2(maxScale + 1);
 8001318:	4b89      	ldr	r3, [pc, #548]	; (8001540 <TIM3_IRQHandler+0x29c>)
 800131a:	61fb      	str	r3, [r7, #28]

	harmonicScaleOdd = (uint16_t)(ADC_SUM(1)) >> scaleInit;		// scale 0 to 511
 800131c:	4b82      	ldr	r3, [pc, #520]	; (8001528 <TIM3_IRQHandler+0x284>)
 800131e:	885b      	ldrh	r3, [r3, #2]
 8001320:	b29a      	uxth	r2, r3
 8001322:	4b81      	ldr	r3, [pc, #516]	; (8001528 <TIM3_IRQHandler+0x284>)
 8001324:	899b      	ldrh	r3, [r3, #12]
 8001326:	b29b      	uxth	r3, r3
 8001328:	4413      	add	r3, r2
 800132a:	b29a      	uxth	r2, r3
 800132c:	4b7e      	ldr	r3, [pc, #504]	; (8001528 <TIM3_IRQHandler+0x284>)
 800132e:	8adb      	ldrh	r3, [r3, #22]
 8001330:	b29b      	uxth	r3, r3
 8001332:	4413      	add	r3, r2
 8001334:	b29a      	uxth	r2, r3
 8001336:	4b7c      	ldr	r3, [pc, #496]	; (8001528 <TIM3_IRQHandler+0x284>)
 8001338:	8c1b      	ldrh	r3, [r3, #32]
 800133a:	b29b      	uxth	r3, r3
 800133c:	4413      	add	r3, r2
 800133e:	b29b      	uxth	r3, r3
 8001340:	10db      	asrs	r3, r3, #3
 8001342:	b29a      	uxth	r2, r3
 8001344:	4b7f      	ldr	r3, [pc, #508]	; (8001544 <TIM3_IRQHandler+0x2a0>)
 8001346:	801a      	strh	r2, [r3, #0]
	dampedHarmonicScaleOdd = ((15 * dampedHarmonicScaleOdd) + harmonicScaleOdd) >> 4;
 8001348:	4b7f      	ldr	r3, [pc, #508]	; (8001548 <TIM3_IRQHandler+0x2a4>)
 800134a:	881b      	ldrh	r3, [r3, #0]
 800134c:	b29b      	uxth	r3, r3
 800134e:	461a      	mov	r2, r3
 8001350:	4613      	mov	r3, r2
 8001352:	011b      	lsls	r3, r3, #4
 8001354:	1a9b      	subs	r3, r3, r2
 8001356:	4a7b      	ldr	r2, [pc, #492]	; (8001544 <TIM3_IRQHandler+0x2a0>)
 8001358:	8812      	ldrh	r2, [r2, #0]
 800135a:	b292      	uxth	r2, r2
 800135c:	4413      	add	r3, r2
 800135e:	111b      	asrs	r3, r3, #4
 8001360:	b29a      	uxth	r2, r3
 8001362:	4b79      	ldr	r3, [pc, #484]	; (8001548 <TIM3_IRQHandler+0x2a4>)
 8001364:	801a      	strh	r2, [r3, #0]
	harmScaleOdd = ((31.0f * harmScaleOdd) + uint16_t(std::pow(2.0f, (float)dampedHarmonicScaleOdd / scaleDivisor) - 1)) / 32.0f;
 8001366:	4b79      	ldr	r3, [pc, #484]	; (800154c <TIM3_IRQHandler+0x2a8>)
 8001368:	681b      	ldr	r3, [r3, #0]
 800136a:	4979      	ldr	r1, [pc, #484]	; (8001550 <TIM3_IRQHandler+0x2ac>)
 800136c:	4618      	mov	r0, r3
 800136e:	f7ff fa1f 	bl	80007b0 <__aeabi_fmul>
 8001372:	4603      	mov	r3, r0
 8001374:	461c      	mov	r4, r3
 8001376:	4b74      	ldr	r3, [pc, #464]	; (8001548 <TIM3_IRQHandler+0x2a4>)
 8001378:	881b      	ldrh	r3, [r3, #0]
 800137a:	b29b      	uxth	r3, r3
 800137c:	4618      	mov	r0, r3
 800137e:	f7ff f9bf 	bl	8000700 <__aeabi_ui2f>
 8001382:	4603      	mov	r3, r0
 8001384:	496e      	ldr	r1, [pc, #440]	; (8001540 <TIM3_IRQHandler+0x29c>)
 8001386:	4618      	mov	r0, r3
 8001388:	f7ff fac6 	bl	8000918 <__aeabi_fdiv>
 800138c:	4603      	mov	r3, r0
 800138e:	4619      	mov	r1, r3
 8001390:	f04f 4080 	mov.w	r0, #1073741824	; 0x40000000
 8001394:	f7ff ff6a 	bl	800126c <_ZSt3powff>
 8001398:	4603      	mov	r3, r0
 800139a:	f04f 517e 	mov.w	r1, #1065353216	; 0x3f800000
 800139e:	4618      	mov	r0, r3
 80013a0:	f7ff f8fc 	bl	800059c <__aeabi_fsub>
 80013a4:	4603      	mov	r3, r0
 80013a6:	4618      	mov	r0, r3
 80013a8:	f7ff fbde 	bl	8000b68 <__aeabi_f2uiz>
 80013ac:	4603      	mov	r3, r0
 80013ae:	b29b      	uxth	r3, r3
 80013b0:	4618      	mov	r0, r3
 80013b2:	f7ff f9a9 	bl	8000708 <__aeabi_i2f>
 80013b6:	4603      	mov	r3, r0
 80013b8:	4619      	mov	r1, r3
 80013ba:	4620      	mov	r0, r4
 80013bc:	f7ff f8f0 	bl	80005a0 <__addsf3>
 80013c0:	4603      	mov	r3, r0
 80013c2:	f04f 4184 	mov.w	r1, #1107296256	; 0x42000000
 80013c6:	4618      	mov	r0, r3
 80013c8:	f7ff faa6 	bl	8000918 <__aeabi_fdiv>
 80013cc:	4603      	mov	r3, r0
 80013ce:	461a      	mov	r2, r3
 80013d0:	4b5e      	ldr	r3, [pc, #376]	; (800154c <TIM3_IRQHandler+0x2a8>)
 80013d2:	601a      	str	r2, [r3, #0]

	harmonicScaleEven = (uint16_t)(ADC_SUM(2)) >> scaleInit;		// scale 2^16 to maxScale
 80013d4:	4b54      	ldr	r3, [pc, #336]	; (8001528 <TIM3_IRQHandler+0x284>)
 80013d6:	889b      	ldrh	r3, [r3, #4]
 80013d8:	b29a      	uxth	r2, r3
 80013da:	4b53      	ldr	r3, [pc, #332]	; (8001528 <TIM3_IRQHandler+0x284>)
 80013dc:	89db      	ldrh	r3, [r3, #14]
 80013de:	b29b      	uxth	r3, r3
 80013e0:	4413      	add	r3, r2
 80013e2:	b29a      	uxth	r2, r3
 80013e4:	4b50      	ldr	r3, [pc, #320]	; (8001528 <TIM3_IRQHandler+0x284>)
 80013e6:	8b1b      	ldrh	r3, [r3, #24]
 80013e8:	b29b      	uxth	r3, r3
 80013ea:	4413      	add	r3, r2
 80013ec:	b29a      	uxth	r2, r3
 80013ee:	4b4e      	ldr	r3, [pc, #312]	; (8001528 <TIM3_IRQHandler+0x284>)
 80013f0:	8c5b      	ldrh	r3, [r3, #34]	; 0x22
 80013f2:	b29b      	uxth	r3, r3
 80013f4:	4413      	add	r3, r2
 80013f6:	b29b      	uxth	r3, r3
 80013f8:	10db      	asrs	r3, r3, #3
 80013fa:	b29a      	uxth	r2, r3
 80013fc:	4b55      	ldr	r3, [pc, #340]	; (8001554 <TIM3_IRQHandler+0x2b0>)
 80013fe:	801a      	strh	r2, [r3, #0]
	dampedHarmonicScaleEven = ((15 * dampedHarmonicScaleEven) + harmonicScaleEven) >> 4;
 8001400:	4b55      	ldr	r3, [pc, #340]	; (8001558 <TIM3_IRQHandler+0x2b4>)
 8001402:	881b      	ldrh	r3, [r3, #0]
 8001404:	b29b      	uxth	r3, r3
 8001406:	461a      	mov	r2, r3
 8001408:	4613      	mov	r3, r2
 800140a:	011b      	lsls	r3, r3, #4
 800140c:	1a9b      	subs	r3, r3, r2
 800140e:	4a51      	ldr	r2, [pc, #324]	; (8001554 <TIM3_IRQHandler+0x2b0>)
 8001410:	8812      	ldrh	r2, [r2, #0]
 8001412:	b292      	uxth	r2, r2
 8001414:	4413      	add	r3, r2
 8001416:	111b      	asrs	r3, r3, #4
 8001418:	b29a      	uxth	r2, r3
 800141a:	4b4f      	ldr	r3, [pc, #316]	; (8001558 <TIM3_IRQHandler+0x2b4>)
 800141c:	801a      	strh	r2, [r3, #0]
	harmScaleEven = ((31.0f * harmScaleEven) + uint16_t(std::pow(2.0f, (float)dampedHarmonicScaleEven / scaleDivisor) - 1)) / 32.0f;
 800141e:	4b4f      	ldr	r3, [pc, #316]	; (800155c <TIM3_IRQHandler+0x2b8>)
 8001420:	681b      	ldr	r3, [r3, #0]
 8001422:	494b      	ldr	r1, [pc, #300]	; (8001550 <TIM3_IRQHandler+0x2ac>)
 8001424:	4618      	mov	r0, r3
 8001426:	f7ff f9c3 	bl	80007b0 <__aeabi_fmul>
 800142a:	4603      	mov	r3, r0
 800142c:	461c      	mov	r4, r3
 800142e:	4b4a      	ldr	r3, [pc, #296]	; (8001558 <TIM3_IRQHandler+0x2b4>)
 8001430:	881b      	ldrh	r3, [r3, #0]
 8001432:	b29b      	uxth	r3, r3
 8001434:	4618      	mov	r0, r3
 8001436:	f7ff f963 	bl	8000700 <__aeabi_ui2f>
 800143a:	4603      	mov	r3, r0
 800143c:	4940      	ldr	r1, [pc, #256]	; (8001540 <TIM3_IRQHandler+0x29c>)
 800143e:	4618      	mov	r0, r3
 8001440:	f7ff fa6a 	bl	8000918 <__aeabi_fdiv>
 8001444:	4603      	mov	r3, r0
 8001446:	4619      	mov	r1, r3
 8001448:	f04f 4080 	mov.w	r0, #1073741824	; 0x40000000
 800144c:	f7ff ff0e 	bl	800126c <_ZSt3powff>
 8001450:	4603      	mov	r3, r0
 8001452:	f04f 517e 	mov.w	r1, #1065353216	; 0x3f800000
 8001456:	4618      	mov	r0, r3
 8001458:	f7ff f8a0 	bl	800059c <__aeabi_fsub>
 800145c:	4603      	mov	r3, r0
 800145e:	4618      	mov	r0, r3
 8001460:	f7ff fb82 	bl	8000b68 <__aeabi_f2uiz>
 8001464:	4603      	mov	r3, r0
 8001466:	b29b      	uxth	r3, r3
 8001468:	4618      	mov	r0, r3
 800146a:	f7ff f94d 	bl	8000708 <__aeabi_i2f>
 800146e:	4603      	mov	r3, r0
 8001470:	4619      	mov	r1, r3
 8001472:	4620      	mov	r0, r4
 8001474:	f7ff f894 	bl	80005a0 <__addsf3>
 8001478:	4603      	mov	r3, r0
 800147a:	f04f 4184 	mov.w	r1, #1107296256	; 0x42000000
 800147e:	4618      	mov	r0, r3
 8001480:	f7ff fa4a 	bl	8000918 <__aeabi_fdiv>
 8001484:	4603      	mov	r3, r0
 8001486:	461a      	mov	r2, r3
 8001488:	4b34      	ldr	r3, [pc, #208]	; (800155c <TIM3_IRQHandler+0x2b8>)
 800148a:	601a      	str	r2, [r3, #0]

	// Create inverted exponential curve for volume reduction
	float volOdd = (maxScale - (float)harmScaleOdd) / maxScale;
 800148c:	4b2f      	ldr	r3, [pc, #188]	; (800154c <TIM3_IRQHandler+0x2a8>)
 800148e:	681b      	ldr	r3, [r3, #0]
 8001490:	4619      	mov	r1, r3
 8001492:	482a      	ldr	r0, [pc, #168]	; (800153c <TIM3_IRQHandler+0x298>)
 8001494:	f7ff f882 	bl	800059c <__aeabi_fsub>
 8001498:	4603      	mov	r3, r0
 800149a:	4928      	ldr	r1, [pc, #160]	; (800153c <TIM3_IRQHandler+0x298>)
 800149c:	4618      	mov	r0, r3
 800149e:	f7ff fa3b 	bl	8000918 <__aeabi_fdiv>
 80014a2:	4603      	mov	r3, r0
 80014a4:	61bb      	str	r3, [r7, #24]
	startVolOdd = ((0.7f - 0.7f * std::pow(volOdd, 4.0f)) + 0.3f) * maxScale;
 80014a6:	f04f 4181 	mov.w	r1, #1082130432	; 0x40800000
 80014aa:	69b8      	ldr	r0, [r7, #24]
 80014ac:	f7ff fede 	bl	800126c <_ZSt3powff>
 80014b0:	4603      	mov	r3, r0
 80014b2:	492b      	ldr	r1, [pc, #172]	; (8001560 <TIM3_IRQHandler+0x2bc>)
 80014b4:	4618      	mov	r0, r3
 80014b6:	f7ff f97b 	bl	80007b0 <__aeabi_fmul>
 80014ba:	4603      	mov	r3, r0
 80014bc:	4619      	mov	r1, r3
 80014be:	4828      	ldr	r0, [pc, #160]	; (8001560 <TIM3_IRQHandler+0x2bc>)
 80014c0:	f7ff f86c 	bl	800059c <__aeabi_fsub>
 80014c4:	4603      	mov	r3, r0
 80014c6:	4927      	ldr	r1, [pc, #156]	; (8001564 <TIM3_IRQHandler+0x2c0>)
 80014c8:	4618      	mov	r0, r3
 80014ca:	f7ff f869 	bl	80005a0 <__addsf3>
 80014ce:	4603      	mov	r3, r0
 80014d0:	491a      	ldr	r1, [pc, #104]	; (800153c <TIM3_IRQHandler+0x298>)
 80014d2:	4618      	mov	r0, r3
 80014d4:	f7ff f96c 	bl	80007b0 <__aeabi_fmul>
 80014d8:	4603      	mov	r3, r0
 80014da:	4618      	mov	r0, r3
 80014dc:	f7ff fb44 	bl	8000b68 <__aeabi_f2uiz>
 80014e0:	4603      	mov	r3, r0
 80014e2:	b29a      	uxth	r2, r3
 80014e4:	4b20      	ldr	r3, [pc, #128]	; (8001568 <TIM3_IRQHandler+0x2c4>)
 80014e6:	801a      	strh	r2, [r3, #0]

	// Create inverted exponential curve for volume reduction
	float volEven = (maxScale - (float)harmScaleEven) / maxScale;
 80014e8:	4b1c      	ldr	r3, [pc, #112]	; (800155c <TIM3_IRQHandler+0x2b8>)
 80014ea:	681b      	ldr	r3, [r3, #0]
 80014ec:	4619      	mov	r1, r3
 80014ee:	4813      	ldr	r0, [pc, #76]	; (800153c <TIM3_IRQHandler+0x298>)
 80014f0:	f7ff f854 	bl	800059c <__aeabi_fsub>
 80014f4:	4603      	mov	r3, r0
 80014f6:	4911      	ldr	r1, [pc, #68]	; (800153c <TIM3_IRQHandler+0x298>)
 80014f8:	4618      	mov	r0, r3
 80014fa:	f7ff fa0d 	bl	8000918 <__aeabi_fdiv>
 80014fe:	4603      	mov	r3, r0
 8001500:	617b      	str	r3, [r7, #20]
	startVolEven = ((0.7f - 0.7f * std::pow(volEven, 4.0f)) + 0.3f) * maxScale;
 8001502:	f04f 4181 	mov.w	r1, #1082130432	; 0x40800000
 8001506:	6978      	ldr	r0, [r7, #20]
 8001508:	f7ff feb0 	bl	800126c <_ZSt3powff>
 800150c:	4603      	mov	r3, r0
 800150e:	4914      	ldr	r1, [pc, #80]	; (8001560 <TIM3_IRQHandler+0x2bc>)
 8001510:	4618      	mov	r0, r3
 8001512:	f7ff f94d 	bl	80007b0 <__aeabi_fmul>
 8001516:	4603      	mov	r3, r0
 8001518:	4619      	mov	r1, r3
 800151a:	4811      	ldr	r0, [pc, #68]	; (8001560 <TIM3_IRQHandler+0x2bc>)
 800151c:	f7ff f83e 	bl	800059c <__aeabi_fsub>
 8001520:	4603      	mov	r3, r0
 8001522:	e023      	b.n	800156c <TIM3_IRQHandler+0x2c8>
 8001524:	40000400 	.word	0x40000400
 8001528:	20000090 	.word	0x20000090
 800152c:	200000b8 	.word	0x200000b8
 8001530:	c4138000 	.word	0xc4138000
 8001534:	456a6000 	.word	0x456a6000
 8001538:	20000000 	.word	0x20000000
 800153c:	44ffe000 	.word	0x44ffe000
 8001540:	433a1746 	.word	0x433a1746
 8001544:	200000bc 	.word	0x200000bc
 8001548:	200000be 	.word	0x200000be
 800154c:	200000c4 	.word	0x200000c4
 8001550:	41f80000 	.word	0x41f80000
 8001554:	200000c8 	.word	0x200000c8
 8001558:	200000ca 	.word	0x200000ca
 800155c:	200000d0 	.word	0x200000d0
 8001560:	3f333333 	.word	0x3f333333
 8001564:	3e99999a 	.word	0x3e99999a
 8001568:	200000c0 	.word	0x200000c0
 800156c:	4968      	ldr	r1, [pc, #416]	; (8001710 <TIM3_IRQHandler+0x46c>)
 800156e:	4618      	mov	r0, r3
 8001570:	f7ff f816 	bl	80005a0 <__addsf3>
 8001574:	4603      	mov	r3, r0
 8001576:	4967      	ldr	r1, [pc, #412]	; (8001714 <TIM3_IRQHandler+0x470>)
 8001578:	4618      	mov	r0, r3
 800157a:	f7ff f919 	bl	80007b0 <__aeabi_fmul>
 800157e:	4603      	mov	r3, r0
 8001580:	4618      	mov	r0, r3
 8001582:	f7ff faf1 	bl	8000b68 <__aeabi_f2uiz>
 8001586:	4603      	mov	r3, r0
 8001588:	b29a      	uxth	r2, r3
 800158a:	4b63      	ldr	r3, [pc, #396]	; (8001718 <TIM3_IRQHandler+0x474>)
 800158c:	801a      	strh	r2, [r3, #0]

	// Send CV value for frequency scaling
	//freqScale = std::max((int16_t)126 - ((int16_t)ADC_SUM(3)) >> 7, 0);		// scale to range 0-127
	freqScale = std::max(126 - ((int16_t)ADC_SUM(3) >> 7), 0);		// scale to range 0-127
 800158e:	4b63      	ldr	r3, [pc, #396]	; (800171c <TIM3_IRQHandler+0x478>)
 8001590:	88db      	ldrh	r3, [r3, #6]
 8001592:	b29a      	uxth	r2, r3
 8001594:	4b61      	ldr	r3, [pc, #388]	; (800171c <TIM3_IRQHandler+0x478>)
 8001596:	8a1b      	ldrh	r3, [r3, #16]
 8001598:	b29b      	uxth	r3, r3
 800159a:	4413      	add	r3, r2
 800159c:	b29a      	uxth	r2, r3
 800159e:	4b5f      	ldr	r3, [pc, #380]	; (800171c <TIM3_IRQHandler+0x478>)
 80015a0:	8b5b      	ldrh	r3, [r3, #26]
 80015a2:	b29b      	uxth	r3, r3
 80015a4:	4413      	add	r3, r2
 80015a6:	b29a      	uxth	r2, r3
 80015a8:	4b5c      	ldr	r3, [pc, #368]	; (800171c <TIM3_IRQHandler+0x478>)
 80015aa:	8c9b      	ldrh	r3, [r3, #36]	; 0x24
 80015ac:	b29b      	uxth	r3, r3
 80015ae:	4413      	add	r3, r2
 80015b0:	b29b      	uxth	r3, r3
 80015b2:	b21b      	sxth	r3, r3
 80015b4:	11db      	asrs	r3, r3, #7
 80015b6:	f1c3 037e 	rsb	r3, r3, #126	; 0x7e
 80015ba:	607b      	str	r3, [r7, #4]
 80015bc:	2300      	movs	r3, #0
 80015be:	60bb      	str	r3, [r7, #8]
 80015c0:	f107 0208 	add.w	r2, r7, #8
 80015c4:	1d3b      	adds	r3, r7, #4
 80015c6:	4611      	mov	r1, r2
 80015c8:	4618      	mov	r0, r3
 80015ca:	f000 f900 	bl	80017ce <_ZSt3maxIiERKT_S2_S2_>
 80015ce:	4603      	mov	r3, r0
 80015d0:	681b      	ldr	r3, [r3, #0]
 80015d2:	b21a      	sxth	r2, r3
 80015d4:	4b52      	ldr	r3, [pc, #328]	; (8001720 <TIM3_IRQHandler+0x47c>)
 80015d6:	801a      	strh	r2, [r3, #0]

	// Send potentiometer value for number of harmonics
	if (harmCountTemp > ADC_SUM(4) + 100 || harmCountTemp < ADC_SUM(4) - 100)
 80015d8:	4b52      	ldr	r3, [pc, #328]	; (8001724 <TIM3_IRQHandler+0x480>)
 80015da:	881b      	ldrh	r3, [r3, #0]
 80015dc:	b29b      	uxth	r3, r3
 80015de:	4619      	mov	r1, r3
 80015e0:	4b4e      	ldr	r3, [pc, #312]	; (800171c <TIM3_IRQHandler+0x478>)
 80015e2:	891b      	ldrh	r3, [r3, #8]
 80015e4:	b29b      	uxth	r3, r3
 80015e6:	461a      	mov	r2, r3
 80015e8:	4b4c      	ldr	r3, [pc, #304]	; (800171c <TIM3_IRQHandler+0x478>)
 80015ea:	8a5b      	ldrh	r3, [r3, #18]
 80015ec:	b29b      	uxth	r3, r3
 80015ee:	4413      	add	r3, r2
 80015f0:	4a4a      	ldr	r2, [pc, #296]	; (800171c <TIM3_IRQHandler+0x478>)
 80015f2:	8b92      	ldrh	r2, [r2, #28]
 80015f4:	b292      	uxth	r2, r2
 80015f6:	4413      	add	r3, r2
 80015f8:	4a48      	ldr	r2, [pc, #288]	; (800171c <TIM3_IRQHandler+0x478>)
 80015fa:	8cd2      	ldrh	r2, [r2, #38]	; 0x26
 80015fc:	b292      	uxth	r2, r2
 80015fe:	4413      	add	r3, r2
 8001600:	3364      	adds	r3, #100	; 0x64
 8001602:	4299      	cmp	r1, r3
 8001604:	dc16      	bgt.n	8001634 <TIM3_IRQHandler+0x390>
 8001606:	4b47      	ldr	r3, [pc, #284]	; (8001724 <TIM3_IRQHandler+0x480>)
 8001608:	881b      	ldrh	r3, [r3, #0]
 800160a:	b29b      	uxth	r3, r3
 800160c:	4619      	mov	r1, r3
 800160e:	4b43      	ldr	r3, [pc, #268]	; (800171c <TIM3_IRQHandler+0x478>)
 8001610:	891b      	ldrh	r3, [r3, #8]
 8001612:	b29b      	uxth	r3, r3
 8001614:	461a      	mov	r2, r3
 8001616:	4b41      	ldr	r3, [pc, #260]	; (800171c <TIM3_IRQHandler+0x478>)
 8001618:	8a5b      	ldrh	r3, [r3, #18]
 800161a:	b29b      	uxth	r3, r3
 800161c:	4413      	add	r3, r2
 800161e:	4a3f      	ldr	r2, [pc, #252]	; (800171c <TIM3_IRQHandler+0x478>)
 8001620:	8b92      	ldrh	r2, [r2, #28]
 8001622:	b292      	uxth	r2, r2
 8001624:	4413      	add	r3, r2
 8001626:	4a3d      	ldr	r2, [pc, #244]	; (800171c <TIM3_IRQHandler+0x478>)
 8001628:	8cd2      	ldrh	r2, [r2, #38]	; 0x26
 800162a:	b292      	uxth	r2, r2
 800162c:	4413      	add	r3, r2
 800162e:	3b64      	subs	r3, #100	; 0x64
 8001630:	4299      	cmp	r1, r3
 8001632:	da01      	bge.n	8001638 <TIM3_IRQHandler+0x394>
 8001634:	2301      	movs	r3, #1
 8001636:	e000      	b.n	800163a <TIM3_IRQHandler+0x396>
 8001638:	2300      	movs	r3, #0
 800163a:	2b00      	cmp	r3, #0
 800163c:	d013      	beq.n	8001666 <TIM3_IRQHandler+0x3c2>
		harmCountTemp = ADC_SUM(4);
 800163e:	4b37      	ldr	r3, [pc, #220]	; (800171c <TIM3_IRQHandler+0x478>)
 8001640:	891b      	ldrh	r3, [r3, #8]
 8001642:	b29a      	uxth	r2, r3
 8001644:	4b35      	ldr	r3, [pc, #212]	; (800171c <TIM3_IRQHandler+0x478>)
 8001646:	8a5b      	ldrh	r3, [r3, #18]
 8001648:	b29b      	uxth	r3, r3
 800164a:	4413      	add	r3, r2
 800164c:	b29a      	uxth	r2, r3
 800164e:	4b33      	ldr	r3, [pc, #204]	; (800171c <TIM3_IRQHandler+0x478>)
 8001650:	8b9b      	ldrh	r3, [r3, #28]
 8001652:	b29b      	uxth	r3, r3
 8001654:	4413      	add	r3, r2
 8001656:	b29a      	uxth	r2, r3
 8001658:	4b30      	ldr	r3, [pc, #192]	; (800171c <TIM3_IRQHandler+0x478>)
 800165a:	8cdb      	ldrh	r3, [r3, #38]	; 0x26
 800165c:	b29b      	uxth	r3, r3
 800165e:	4413      	add	r3, r2
 8001660:	b29a      	uxth	r2, r3
 8001662:	4b30      	ldr	r3, [pc, #192]	; (8001724 <TIM3_IRQHandler+0x480>)
 8001664:	801a      	strh	r2, [r3, #0]
	//harmCount = harmCountTemp >> 7;		// scale to range 0-127
	harmCount = std::max(126 - ((int16_t)harmCountTemp >> 7), 0);		// scale to range 0-127
 8001666:	4b2f      	ldr	r3, [pc, #188]	; (8001724 <TIM3_IRQHandler+0x480>)
 8001668:	881b      	ldrh	r3, [r3, #0]
 800166a:	b29b      	uxth	r3, r3
 800166c:	b21b      	sxth	r3, r3
 800166e:	11db      	asrs	r3, r3, #7
 8001670:	f1c3 037e 	rsb	r3, r3, #126	; 0x7e
 8001674:	60fb      	str	r3, [r7, #12]
 8001676:	2300      	movs	r3, #0
 8001678:	613b      	str	r3, [r7, #16]
 800167a:	f107 0210 	add.w	r2, r7, #16
 800167e:	f107 030c 	add.w	r3, r7, #12
 8001682:	4611      	mov	r1, r2
 8001684:	4618      	mov	r0, r3
 8001686:	f000 f8a2 	bl	80017ce <_ZSt3maxIiERKT_S2_S2_>
 800168a:	4603      	mov	r3, r0
 800168c:	681b      	ldr	r3, [r3, #0]
 800168e:	b29a      	uxth	r2, r3
 8001690:	4b25      	ldr	r3, [pc, #148]	; (8001728 <TIM3_IRQHandler+0x484>)
 8001692:	801a      	strh	r2, [r3, #0]


	sendSPIData((uint16_t)freq);
 8001694:	4b25      	ldr	r3, [pc, #148]	; (800172c <TIM3_IRQHandler+0x488>)
 8001696:	681b      	ldr	r3, [r3, #0]
 8001698:	4618      	mov	r0, r3
 800169a:	f7ff fa65 	bl	8000b68 <__aeabi_f2uiz>
 800169e:	4603      	mov	r3, r0
 80016a0:	b29b      	uxth	r3, r3
 80016a2:	4618      	mov	r0, r3
 80016a4:	f7ff fd5e 	bl	8001164 <_Z11sendSPIDatat>
	sendSPIData((uint16_t)harmScaleOdd);
 80016a8:	4b21      	ldr	r3, [pc, #132]	; (8001730 <TIM3_IRQHandler+0x48c>)
 80016aa:	681b      	ldr	r3, [r3, #0]
 80016ac:	4618      	mov	r0, r3
 80016ae:	f7ff fa5b 	bl	8000b68 <__aeabi_f2uiz>
 80016b2:	4603      	mov	r3, r0
 80016b4:	b29b      	uxth	r3, r3
 80016b6:	4618      	mov	r0, r3
 80016b8:	f7ff fd54 	bl	8001164 <_Z11sendSPIDatat>
	sendSPIData(startVolOdd);
 80016bc:	4b1d      	ldr	r3, [pc, #116]	; (8001734 <TIM3_IRQHandler+0x490>)
 80016be:	881b      	ldrh	r3, [r3, #0]
 80016c0:	b29b      	uxth	r3, r3
 80016c2:	4618      	mov	r0, r3
 80016c4:	f7ff fd4e 	bl	8001164 <_Z11sendSPIDatat>
	sendSPIData((uint16_t)harmScaleEven);
 80016c8:	4b1b      	ldr	r3, [pc, #108]	; (8001738 <TIM3_IRQHandler+0x494>)
 80016ca:	681b      	ldr	r3, [r3, #0]
 80016cc:	4618      	mov	r0, r3
 80016ce:	f7ff fa4b 	bl	8000b68 <__aeabi_f2uiz>
 80016d2:	4603      	mov	r3, r0
 80016d4:	b29b      	uxth	r3, r3
 80016d6:	4618      	mov	r0, r3
 80016d8:	f7ff fd44 	bl	8001164 <_Z11sendSPIDatat>
	sendSPIData(startVolEven);
 80016dc:	4b0e      	ldr	r3, [pc, #56]	; (8001718 <TIM3_IRQHandler+0x474>)
 80016de:	881b      	ldrh	r3, [r3, #0]
 80016e0:	b29b      	uxth	r3, r3
 80016e2:	4618      	mov	r0, r3
 80016e4:	f7ff fd3e 	bl	8001164 <_Z11sendSPIDatat>
	sendSPIData(freqScale);
 80016e8:	4b0d      	ldr	r3, [pc, #52]	; (8001720 <TIM3_IRQHandler+0x47c>)
 80016ea:	881b      	ldrh	r3, [r3, #0]
 80016ec:	b21b      	sxth	r3, r3
 80016ee:	b29b      	uxth	r3, r3
 80016f0:	4618      	mov	r0, r3
 80016f2:	f7ff fd37 	bl	8001164 <_Z11sendSPIDatat>
	sendSPIData(harmCount);
 80016f6:	4b0c      	ldr	r3, [pc, #48]	; (8001728 <TIM3_IRQHandler+0x484>)
 80016f8:	881b      	ldrh	r3, [r3, #0]
 80016fa:	b29b      	uxth	r3, r3
 80016fc:	4618      	mov	r0, r3
 80016fe:	f7ff fd31 	bl	8001164 <_Z11sendSPIDatat>

	clearSPI();
 8001702:	f7ff fd5d 	bl	80011c0 <_Z8clearSPIv>
}
 8001706:	bf00      	nop
 8001708:	372c      	adds	r7, #44	; 0x2c
 800170a:	46bd      	mov	sp, r7
 800170c:	bd90      	pop	{r4, r7, pc}
 800170e:	bf00      	nop
 8001710:	3e99999a 	.word	0x3e99999a
 8001714:	44ffe000 	.word	0x44ffe000
 8001718:	200000cc 	.word	0x200000cc
 800171c:	20000090 	.word	0x20000090
 8001720:	200000d4 	.word	0x200000d4
 8001724:	200000d8 	.word	0x200000d8
 8001728:	200000d6 	.word	0x200000d6
 800172c:	20000000 	.word	0x20000000
 8001730:	200000c4 	.word	0x200000c4
 8001734:	200000c0 	.word	0x200000c0
 8001738:	200000d0 	.word	0x200000d0

0800173c <SysTick_Handler>:

void SysTick_Handler(void) {
 800173c:	b480      	push	{r7}
 800173e:	af00      	add	r7, sp, #0
	SysTickVal++;
 8001740:	4b04      	ldr	r3, [pc, #16]	; (8001754 <SysTick_Handler+0x18>)
 8001742:	681b      	ldr	r3, [r3, #0]
 8001744:	3301      	adds	r3, #1
 8001746:	4a03      	ldr	r2, [pc, #12]	; (8001754 <SysTick_Handler+0x18>)
 8001748:	6013      	str	r3, [r2, #0]
}
 800174a:	bf00      	nop
 800174c:	46bd      	mov	sp, r7
 800174e:	bc80      	pop	{r7}
 8001750:	4770      	bx	lr
 8001752:	bf00      	nop
 8001754:	2000008c 	.word	0x2000008c

08001758 <NMI_Handler>:

void NMI_Handler(void) {}
 8001758:	b480      	push	{r7}
 800175a:	af00      	add	r7, sp, #0
 800175c:	bf00      	nop
 800175e:	46bd      	mov	sp, r7
 8001760:	bc80      	pop	{r7}
 8001762:	4770      	bx	lr

08001764 <HardFault_Handler>:

void HardFault_Handler(void) {
 8001764:	b480      	push	{r7}
 8001766:	af00      	add	r7, sp, #0
	while (1) {}
 8001768:	e7fe      	b.n	8001768 <HardFault_Handler+0x4>

0800176a <MemManage_Handler>:
}

void MemManage_Handler(void) {
 800176a:	b480      	push	{r7}
 800176c:	af00      	add	r7, sp, #0
	while (1) {}
 800176e:	e7fe      	b.n	800176e <MemManage_Handler+0x4>

08001770 <BusFault_Handler>:
}

void BusFault_Handler(void) {
 8001770:	b480      	push	{r7}
 8001772:	af00      	add	r7, sp, #0
	while (1) {}
 8001774:	e7fe      	b.n	8001774 <BusFault_Handler+0x4>

08001776 <UsageFault_Handler>:
}

void UsageFault_Handler(void) {
 8001776:	b480      	push	{r7}
 8001778:	af00      	add	r7, sp, #0
	while (1) {}
 800177a:	e7fe      	b.n	800177a <UsageFault_Handler+0x4>

0800177c <SVC_Handler>:
}

void SVC_Handler(void) {}
 800177c:	b480      	push	{r7}
 800177e:	af00      	add	r7, sp, #0
 8001780:	bf00      	nop
 8001782:	46bd      	mov	sp, r7
 8001784:	bc80      	pop	{r7}
 8001786:	4770      	bx	lr

08001788 <DebugMon_Handler>:

void DebugMon_Handler(void) {}
 8001788:	b480      	push	{r7}
 800178a:	af00      	add	r7, sp, #0
 800178c:	bf00      	nop
 800178e:	46bd      	mov	sp, r7
 8001790:	bc80      	pop	{r7}
 8001792:	4770      	bx	lr

08001794 <PendSV_Handler>:

void PendSV_Handler(void) {}
 8001794:	b480      	push	{r7}
 8001796:	af00      	add	r7, sp, #0
 8001798:	bf00      	nop
 800179a:	46bd      	mov	sp, r7
 800179c:	bc80      	pop	{r7}
 800179e:	4770      	bx	lr

080017a0 <main>:
}
*/


int main(void)
{
 80017a0:	b580      	push	{r7, lr}
 80017a2:	b082      	sub	sp, #8
 80017a4:	af00      	add	r7, sp, #0
	SystemInit();
 80017a6:	f000 f84b 	bl	8001840 <SystemInit>
	SystemClock_Config();			// NB currently highest clock speed seems to be 16MHz - higher and crashes occur
 80017aa:	f7ff fa49 	bl	8000c40 <_Z18SystemClock_Configv>
	SystemCoreClockUpdate();
 80017ae:	f000 f87b 	bl	80018a8 <SystemCoreClockUpdate>
	InitIO();
 80017b2:	f7ff fc3d 	bl	8001030 <_Z6InitIOv>
	InitADC();
 80017b6:	f7ff fad1 	bl	8000d5c <_Z7InitADCv>
	InitSPI();
 80017ba:	f7ff fc53 	bl	8001064 <_Z7InitSPIv>
	InitSPITimer();
 80017be:	f7ff fd27 	bl	8001210 <_Z12InitSPITimerv>

	int i = 0;
 80017c2:	2300      	movs	r3, #0
 80017c4:	607b      	str	r3, [r7, #4]

	while (1) {


		i++;
 80017c6:	687b      	ldr	r3, [r7, #4]
 80017c8:	3301      	adds	r3, #1
 80017ca:	607b      	str	r3, [r7, #4]
 80017cc:	e7fb      	b.n	80017c6 <main+0x26>

080017ce <_ZSt3maxIiERKT_S2_S2_>:
   *  preprocessor macro.
  */
  template<typename _Tp>
    _GLIBCXX14_CONSTEXPR
    inline const _Tp&
    max(const _Tp& __a, const _Tp& __b)
 80017ce:	b480      	push	{r7}
 80017d0:	b083      	sub	sp, #12
 80017d2:	af00      	add	r7, sp, #0
 80017d4:	6078      	str	r0, [r7, #4]
 80017d6:	6039      	str	r1, [r7, #0]
    {
      // concept requirements
      __glibcxx_function_requires(_LessThanComparableConcept<_Tp>)
      //return  __a < __b ? __b : __a;
      if (__a < __b)
 80017d8:	687b      	ldr	r3, [r7, #4]
 80017da:	681a      	ldr	r2, [r3, #0]
 80017dc:	683b      	ldr	r3, [r7, #0]
 80017de:	681b      	ldr	r3, [r3, #0]
 80017e0:	429a      	cmp	r2, r3
 80017e2:	da01      	bge.n	80017e8 <_ZSt3maxIiERKT_S2_S2_+0x1a>
	return __b;
 80017e4:	683b      	ldr	r3, [r7, #0]
 80017e6:	e000      	b.n	80017ea <_ZSt3maxIiERKT_S2_S2_+0x1c>
      return __a;
 80017e8:	687b      	ldr	r3, [r7, #4]
    }
 80017ea:	4618      	mov	r0, r3
 80017ec:	370c      	adds	r7, #12
 80017ee:	46bd      	mov	sp, r7
 80017f0:	bc80      	pop	{r7}
 80017f2:	4770      	bx	lr

080017f4 <Reset_Handler>:
  .weak Reset_Handler
  .type Reset_Handler, %function
Reset_Handler:

/* Copy the data segment initializers from flash to SRAM */
  movs r1, #0
 80017f4:	2100      	movs	r1, #0
  b LoopCopyDataInit
 80017f6:	e003      	b.n	8001800 <LoopCopyDataInit>

080017f8 <CopyDataInit>:

CopyDataInit:
  ldr r3, =_sidata
 80017f8:	4b0b      	ldr	r3, [pc, #44]	; (8001828 <LoopFillZerobss+0x14>)
  ldr r3, [r3, r1]
 80017fa:	585b      	ldr	r3, [r3, r1]
  str r3, [r0, r1]
 80017fc:	5043      	str	r3, [r0, r1]
  adds r1, r1, #4
 80017fe:	3104      	adds	r1, #4

08001800 <LoopCopyDataInit>:

LoopCopyDataInit:
  ldr r0, =_sdata
 8001800:	480a      	ldr	r0, [pc, #40]	; (800182c <LoopFillZerobss+0x18>)
  ldr r3, =_edata
 8001802:	4b0b      	ldr	r3, [pc, #44]	; (8001830 <LoopFillZerobss+0x1c>)
  adds r2, r0, r1
 8001804:	1842      	adds	r2, r0, r1
  cmp r2, r3
 8001806:	429a      	cmp	r2, r3
  bcc CopyDataInit
 8001808:	d3f6      	bcc.n	80017f8 <CopyDataInit>
  ldr r2, =_sbss
 800180a:	4a0a      	ldr	r2, [pc, #40]	; (8001834 <LoopFillZerobss+0x20>)
  b LoopFillZerobss
 800180c:	e002      	b.n	8001814 <LoopFillZerobss>

0800180e <FillZerobss>:
/* Zero fill the bss segment. */
FillZerobss:
  movs r3, #0
 800180e:	2300      	movs	r3, #0
  str r3, [r2], #4
 8001810:	f842 3b04 	str.w	r3, [r2], #4

08001814 <LoopFillZerobss>:

LoopFillZerobss:
  ldr r3, = _ebss
 8001814:	4b08      	ldr	r3, [pc, #32]	; (8001838 <LoopFillZerobss+0x24>)
  cmp r2, r3
 8001816:	429a      	cmp	r2, r3
  bcc FillZerobss
 8001818:	d3f9      	bcc.n	800180e <FillZerobss>

/* Call the clock system intitialization function.*/
    bl  SystemInit
 800181a:	f000 f811 	bl	8001840 <SystemInit>
/* Call static constructors */
    bl __libc_init_array
 800181e:	f000 fea3 	bl	8002568 <__libc_init_array>
/* Call the application's entry point.*/
  bl main
 8001822:	f7ff ffbd 	bl	80017a0 <main>
  bx lr
 8001826:	4770      	bx	lr
  ldr r3, =_sidata
 8001828:	08002614 	.word	0x08002614
  ldr r0, =_sdata
 800182c:	20000000 	.word	0x20000000
  ldr r3, =_edata
 8001830:	20000070 	.word	0x20000070
  ldr r2, =_sbss
 8001834:	20000070 	.word	0x20000070
  ldr r3, = _ebss
 8001838:	200000dc 	.word	0x200000dc

0800183c <COMP_IRQHandler>:
 * @retval : None
*/
    .section .text.Default_Handler,"ax",%progbits
Default_Handler:
Infinite_Loop:
  b Infinite_Loop
 800183c:	e7fe      	b.n	800183c <COMP_IRQHandler>
	...

08001840 <SystemInit>:
  *         SystemCoreClock variable.
  * @param  None
  * @retval None
  */
void SystemInit (void)
{
 8001840:	b480      	push	{r7}
 8001842:	af00      	add	r7, sp, #0
  /*!< Set MSION bit */
  RCC->CR |= (uint32_t)0x00000100;
 8001844:	4b15      	ldr	r3, [pc, #84]	; (800189c <SystemInit+0x5c>)
 8001846:	681b      	ldr	r3, [r3, #0]
 8001848:	4a14      	ldr	r2, [pc, #80]	; (800189c <SystemInit+0x5c>)
 800184a:	f443 7380 	orr.w	r3, r3, #256	; 0x100
 800184e:	6013      	str	r3, [r2, #0]

  /*!< Reset SW[1:0], HPRE[3:0], PPRE1[2:0], PPRE2[2:0], MCOSEL[2:0] and MCOPRE[2:0] bits */
  RCC->CFGR &= (uint32_t)0x88FFC00C;
 8001850:	4b12      	ldr	r3, [pc, #72]	; (800189c <SystemInit+0x5c>)
 8001852:	689a      	ldr	r2, [r3, #8]
 8001854:	4911      	ldr	r1, [pc, #68]	; (800189c <SystemInit+0x5c>)
 8001856:	4b12      	ldr	r3, [pc, #72]	; (80018a0 <SystemInit+0x60>)
 8001858:	4013      	ands	r3, r2
 800185a:	608b      	str	r3, [r1, #8]
  
  /*!< Reset HSION, HSEON, CSSON and PLLON bits */
  RCC->CR &= (uint32_t)0xEEFEFFFE;
 800185c:	4b0f      	ldr	r3, [pc, #60]	; (800189c <SystemInit+0x5c>)
 800185e:	681b      	ldr	r3, [r3, #0]
 8001860:	4a0e      	ldr	r2, [pc, #56]	; (800189c <SystemInit+0x5c>)
 8001862:	f023 5388 	bic.w	r3, r3, #285212672	; 0x11000000
 8001866:	f023 1301 	bic.w	r3, r3, #65537	; 0x10001
 800186a:	6013      	str	r3, [r2, #0]

  /*!< Reset HSEBYP bit */
  RCC->CR &= (uint32_t)0xFFFBFFFF;
 800186c:	4b0b      	ldr	r3, [pc, #44]	; (800189c <SystemInit+0x5c>)
 800186e:	681b      	ldr	r3, [r3, #0]
 8001870:	4a0a      	ldr	r2, [pc, #40]	; (800189c <SystemInit+0x5c>)
 8001872:	f423 2380 	bic.w	r3, r3, #262144	; 0x40000
 8001876:	6013      	str	r3, [r2, #0]

  /*!< Reset PLLSRC, PLLMUL[3:0] and PLLDIV[1:0] bits */
  RCC->CFGR &= (uint32_t)0xFF02FFFF;
 8001878:	4b08      	ldr	r3, [pc, #32]	; (800189c <SystemInit+0x5c>)
 800187a:	689b      	ldr	r3, [r3, #8]
 800187c:	4a07      	ldr	r2, [pc, #28]	; (800189c <SystemInit+0x5c>)
 800187e:	f423 037d 	bic.w	r3, r3, #16580608	; 0xfd0000
 8001882:	6093      	str	r3, [r2, #8]

  /*!< Disable all interrupts */
  RCC->CIR = 0x00000000;
 8001884:	4b05      	ldr	r3, [pc, #20]	; (800189c <SystemInit+0x5c>)
 8001886:	2200      	movs	r2, #0
 8001888:	60da      	str	r2, [r3, #12]
#endif /* DATA_IN_ExtSRAM */
    
#ifdef VECT_TAB_SRAM
  SCB->VTOR = SRAM_BASE | VECT_TAB_OFFSET; /* Vector Table Relocation in Internal SRAM. */
#else
  SCB->VTOR = FLASH_BASE | VECT_TAB_OFFSET; /* Vector Table Relocation in Internal FLASH. */
 800188a:	4b06      	ldr	r3, [pc, #24]	; (80018a4 <SystemInit+0x64>)
 800188c:	f04f 6200 	mov.w	r2, #134217728	; 0x8000000
 8001890:	609a      	str	r2, [r3, #8]
#endif
}
 8001892:	bf00      	nop
 8001894:	46bd      	mov	sp, r7
 8001896:	bc80      	pop	{r7}
 8001898:	4770      	bx	lr
 800189a:	bf00      	nop
 800189c:	40023800 	.word	0x40023800
 80018a0:	88ffc00c 	.word	0x88ffc00c
 80018a4:	e000ed00 	.word	0xe000ed00

080018a8 <SystemCoreClockUpdate>:
  *           value for HSE crystal.
  * @param  None
  * @retval None
  */
void SystemCoreClockUpdate (void)
{
 80018a8:	b480      	push	{r7}
 80018aa:	b087      	sub	sp, #28
 80018ac:	af00      	add	r7, sp, #0
  uint32_t tmp = 0, pllmul = 0, plldiv = 0, pllsource = 0, msirange = 0;
 80018ae:	2300      	movs	r3, #0
 80018b0:	617b      	str	r3, [r7, #20]
 80018b2:	2300      	movs	r3, #0
 80018b4:	613b      	str	r3, [r7, #16]
 80018b6:	2300      	movs	r3, #0
 80018b8:	60fb      	str	r3, [r7, #12]
 80018ba:	2300      	movs	r3, #0
 80018bc:	60bb      	str	r3, [r7, #8]
 80018be:	2300      	movs	r3, #0
 80018c0:	607b      	str	r3, [r7, #4]

  /* Get SYSCLK source -------------------------------------------------------*/
  tmp = RCC->CFGR & RCC_CFGR_SWS;
 80018c2:	4b48      	ldr	r3, [pc, #288]	; (80019e4 <SystemCoreClockUpdate+0x13c>)
 80018c4:	689b      	ldr	r3, [r3, #8]
 80018c6:	f003 030c 	and.w	r3, r3, #12
 80018ca:	617b      	str	r3, [r7, #20]
  
  switch (tmp)
 80018cc:	697b      	ldr	r3, [r7, #20]
 80018ce:	2b0c      	cmp	r3, #12
 80018d0:	d863      	bhi.n	800199a <SystemCoreClockUpdate+0xf2>
 80018d2:	a201      	add	r2, pc, #4	; (adr r2, 80018d8 <SystemCoreClockUpdate+0x30>)
 80018d4:	f852 f023 	ldr.w	pc, [r2, r3, lsl #2]
 80018d8:	0800190d 	.word	0x0800190d
 80018dc:	0800199b 	.word	0x0800199b
 80018e0:	0800199b 	.word	0x0800199b
 80018e4:	0800199b 	.word	0x0800199b
 80018e8:	0800192d 	.word	0x0800192d
 80018ec:	0800199b 	.word	0x0800199b
 80018f0:	0800199b 	.word	0x0800199b
 80018f4:	0800199b 	.word	0x0800199b
 80018f8:	08001935 	.word	0x08001935
 80018fc:	0800199b 	.word	0x0800199b
 8001900:	0800199b 	.word	0x0800199b
 8001904:	0800199b 	.word	0x0800199b
 8001908:	0800193d 	.word	0x0800193d
  {
    case 0x00:  /* MSI used as system clock */
      msirange = (RCC->ICSCR & RCC_ICSCR_MSIRANGE) >> 13;
 800190c:	4b35      	ldr	r3, [pc, #212]	; (80019e4 <SystemCoreClockUpdate+0x13c>)
 800190e:	685b      	ldr	r3, [r3, #4]
 8001910:	0b5b      	lsrs	r3, r3, #13
 8001912:	f003 0307 	and.w	r3, r3, #7
 8001916:	607b      	str	r3, [r7, #4]
      SystemCoreClock = (32768 * (1 << (msirange + 1)));
 8001918:	687b      	ldr	r3, [r7, #4]
 800191a:	3301      	adds	r3, #1
 800191c:	f44f 4200 	mov.w	r2, #32768	; 0x8000
 8001920:	fa02 f303 	lsl.w	r3, r2, r3
 8001924:	461a      	mov	r2, r3
 8001926:	4b30      	ldr	r3, [pc, #192]	; (80019e8 <SystemCoreClockUpdate+0x140>)
 8001928:	601a      	str	r2, [r3, #0]
      break;
 800192a:	e046      	b.n	80019ba <SystemCoreClockUpdate+0x112>
    case 0x04:  /* HSI used as system clock */
      SystemCoreClock = HSI_VALUE;
 800192c:	4b2e      	ldr	r3, [pc, #184]	; (80019e8 <SystemCoreClockUpdate+0x140>)
 800192e:	4a2f      	ldr	r2, [pc, #188]	; (80019ec <SystemCoreClockUpdate+0x144>)
 8001930:	601a      	str	r2, [r3, #0]
      break;
 8001932:	e042      	b.n	80019ba <SystemCoreClockUpdate+0x112>
    case 0x08:  /* HSE used as system clock */
      SystemCoreClock = HSE_VALUE;
 8001934:	4b2c      	ldr	r3, [pc, #176]	; (80019e8 <SystemCoreClockUpdate+0x140>)
 8001936:	4a2d      	ldr	r2, [pc, #180]	; (80019ec <SystemCoreClockUpdate+0x144>)
 8001938:	601a      	str	r2, [r3, #0]
      break;
 800193a:	e03e      	b.n	80019ba <SystemCoreClockUpdate+0x112>
    case 0x0C:  /* PLL used as system clock */
      /* Get PLL clock source and multiplication factor ----------------------*/
      pllmul = RCC->CFGR & RCC_CFGR_PLLMUL;
 800193c:	4b29      	ldr	r3, [pc, #164]	; (80019e4 <SystemCoreClockUpdate+0x13c>)
 800193e:	689b      	ldr	r3, [r3, #8]
 8001940:	f403 1370 	and.w	r3, r3, #3932160	; 0x3c0000
 8001944:	613b      	str	r3, [r7, #16]
      plldiv = RCC->CFGR & RCC_CFGR_PLLDIV;
 8001946:	4b27      	ldr	r3, [pc, #156]	; (80019e4 <SystemCoreClockUpdate+0x13c>)
 8001948:	689b      	ldr	r3, [r3, #8]
 800194a:	f403 0340 	and.w	r3, r3, #12582912	; 0xc00000
 800194e:	60fb      	str	r3, [r7, #12]
      pllmul = PLLMulTable[(pllmul >> 18)];
 8001950:	693b      	ldr	r3, [r7, #16]
 8001952:	0c9b      	lsrs	r3, r3, #18
 8001954:	4a26      	ldr	r2, [pc, #152]	; (80019f0 <SystemCoreClockUpdate+0x148>)
 8001956:	5cd3      	ldrb	r3, [r2, r3]
 8001958:	613b      	str	r3, [r7, #16]
      plldiv = (plldiv >> 22) + 1;
 800195a:	68fb      	ldr	r3, [r7, #12]
 800195c:	0d9b      	lsrs	r3, r3, #22
 800195e:	3301      	adds	r3, #1
 8001960:	60fb      	str	r3, [r7, #12]
      
      pllsource = RCC->CFGR & RCC_CFGR_PLLSRC;
 8001962:	4b20      	ldr	r3, [pc, #128]	; (80019e4 <SystemCoreClockUpdate+0x13c>)
 8001964:	689b      	ldr	r3, [r3, #8]
 8001966:	f403 3380 	and.w	r3, r3, #65536	; 0x10000
 800196a:	60bb      	str	r3, [r7, #8]

      if (pllsource == 0x00)
 800196c:	68bb      	ldr	r3, [r7, #8]
 800196e:	2b00      	cmp	r3, #0
 8001970:	d109      	bne.n	8001986 <SystemCoreClockUpdate+0xde>
      {
        /* HSI oscillator clock selected as PLL clock entry */
        SystemCoreClock = (((HSI_VALUE) * pllmul) / plldiv);
 8001972:	693b      	ldr	r3, [r7, #16]
 8001974:	4a1d      	ldr	r2, [pc, #116]	; (80019ec <SystemCoreClockUpdate+0x144>)
 8001976:	fb02 f203 	mul.w	r2, r2, r3
 800197a:	68fb      	ldr	r3, [r7, #12]
 800197c:	fbb2 f3f3 	udiv	r3, r2, r3
 8001980:	4a19      	ldr	r2, [pc, #100]	; (80019e8 <SystemCoreClockUpdate+0x140>)
 8001982:	6013      	str	r3, [r2, #0]
      else
      {
        /* HSE selected as PLL clock entry */
        SystemCoreClock = (((HSE_VALUE) * pllmul) / plldiv);
      }
      break;
 8001984:	e019      	b.n	80019ba <SystemCoreClockUpdate+0x112>
        SystemCoreClock = (((HSE_VALUE) * pllmul) / plldiv);
 8001986:	693b      	ldr	r3, [r7, #16]
 8001988:	4a18      	ldr	r2, [pc, #96]	; (80019ec <SystemCoreClockUpdate+0x144>)
 800198a:	fb02 f203 	mul.w	r2, r2, r3
 800198e:	68fb      	ldr	r3, [r7, #12]
 8001990:	fbb2 f3f3 	udiv	r3, r2, r3
 8001994:	4a14      	ldr	r2, [pc, #80]	; (80019e8 <SystemCoreClockUpdate+0x140>)
 8001996:	6013      	str	r3, [r2, #0]
      break;
 8001998:	e00f      	b.n	80019ba <SystemCoreClockUpdate+0x112>
    default: /* MSI used as system clock */
      msirange = (RCC->ICSCR & RCC_ICSCR_MSIRANGE) >> 13;
 800199a:	4b12      	ldr	r3, [pc, #72]	; (80019e4 <SystemCoreClockUpdate+0x13c>)
 800199c:	685b      	ldr	r3, [r3, #4]
 800199e:	0b5b      	lsrs	r3, r3, #13
 80019a0:	f003 0307 	and.w	r3, r3, #7
 80019a4:	607b      	str	r3, [r7, #4]
      SystemCoreClock = (32768 * (1 << (msirange + 1)));
 80019a6:	687b      	ldr	r3, [r7, #4]
 80019a8:	3301      	adds	r3, #1
 80019aa:	f44f 4200 	mov.w	r2, #32768	; 0x8000
 80019ae:	fa02 f303 	lsl.w	r3, r2, r3
 80019b2:	461a      	mov	r2, r3
 80019b4:	4b0c      	ldr	r3, [pc, #48]	; (80019e8 <SystemCoreClockUpdate+0x140>)
 80019b6:	601a      	str	r2, [r3, #0]
      break;
 80019b8:	bf00      	nop
  }
  /* Compute HCLK clock frequency --------------------------------------------*/
  /* Get HCLK prescaler */
  tmp = AHBPrescTable[((RCC->CFGR & RCC_CFGR_HPRE) >> 4)];
 80019ba:	4b0a      	ldr	r3, [pc, #40]	; (80019e4 <SystemCoreClockUpdate+0x13c>)
 80019bc:	689b      	ldr	r3, [r3, #8]
 80019be:	091b      	lsrs	r3, r3, #4
 80019c0:	f003 030f 	and.w	r3, r3, #15
 80019c4:	4a0b      	ldr	r2, [pc, #44]	; (80019f4 <SystemCoreClockUpdate+0x14c>)
 80019c6:	5cd3      	ldrb	r3, [r2, r3]
 80019c8:	617b      	str	r3, [r7, #20]
  /* HCLK clock frequency */
  SystemCoreClock >>= tmp;
 80019ca:	4b07      	ldr	r3, [pc, #28]	; (80019e8 <SystemCoreClockUpdate+0x140>)
 80019cc:	681a      	ldr	r2, [r3, #0]
 80019ce:	697b      	ldr	r3, [r7, #20]
 80019d0:	fa22 f303 	lsr.w	r3, r2, r3
 80019d4:	4a04      	ldr	r2, [pc, #16]	; (80019e8 <SystemCoreClockUpdate+0x140>)
 80019d6:	6013      	str	r3, [r2, #0]
}
 80019d8:	bf00      	nop
 80019da:	371c      	adds	r7, #28
 80019dc:	46bd      	mov	sp, r7
 80019de:	bc80      	pop	{r7}
 80019e0:	4770      	bx	lr
 80019e2:	bf00      	nop
 80019e4:	40023800 	.word	0x40023800
 80019e8:	20000004 	.word	0x20000004
 80019ec:	007a1200 	.word	0x007a1200
 80019f0:	080025c8 	.word	0x080025c8
 80019f4:	080025d4 	.word	0x080025d4

080019f8 <powf>:
 80019f8:	e92d 4ff0 	stmdb	sp!, {r4, r5, r6, r7, r8, r9, sl, fp, lr}
 80019fc:	b08d      	sub	sp, #52	; 0x34
 80019fe:	4605      	mov	r5, r0
 8001a00:	460c      	mov	r4, r1
 8001a02:	f000 f959 	bl	8001cb8 <__ieee754_powf>
 8001a06:	f8df 82ac 	ldr.w	r8, [pc, #684]	; 8001cb4 <powf+0x2bc>
 8001a0a:	4606      	mov	r6, r0
 8001a0c:	f998 9000 	ldrsb.w	r9, [r8]
 8001a10:	4647      	mov	r7, r8
 8001a12:	f1b9 3fff 	cmp.w	r9, #4294967295
 8001a16:	d060      	beq.n	8001ada <powf+0xe2>
 8001a18:	4621      	mov	r1, r4
 8001a1a:	4620      	mov	r0, r4
 8001a1c:	f7ff f88e 	bl	8000b3c <__aeabi_fcmpun>
 8001a20:	4683      	mov	fp, r0
 8001a22:	2800      	cmp	r0, #0
 8001a24:	d159      	bne.n	8001ada <powf+0xe2>
 8001a26:	4629      	mov	r1, r5
 8001a28:	4628      	mov	r0, r5
 8001a2a:	f7ff f887 	bl	8000b3c <__aeabi_fcmpun>
 8001a2e:	2100      	movs	r1, #0
 8001a30:	4682      	mov	sl, r0
 8001a32:	b300      	cbz	r0, 8001a76 <powf+0x7e>
 8001a34:	4620      	mov	r0, r4
 8001a36:	f7ff f84f 	bl	8000ad8 <__aeabi_fcmpeq>
 8001a3a:	2800      	cmp	r0, #0
 8001a3c:	d04d      	beq.n	8001ada <powf+0xe2>
 8001a3e:	2301      	movs	r3, #1
 8001a40:	9302      	str	r3, [sp, #8]
 8001a42:	4b96      	ldr	r3, [pc, #600]	; (8001c9c <powf+0x2a4>)
 8001a44:	4628      	mov	r0, r5
 8001a46:	9303      	str	r3, [sp, #12]
 8001a48:	f8cd b028 	str.w	fp, [sp, #40]	; 0x28
 8001a4c:	f7fe fcfa 	bl	8000444 <__aeabi_f2d>
 8001a50:	e9cd 0104 	strd	r0, r1, [sp, #16]
 8001a54:	4620      	mov	r0, r4
 8001a56:	f7fe fcf5 	bl	8000444 <__aeabi_f2d>
 8001a5a:	2200      	movs	r2, #0
 8001a5c:	4b90      	ldr	r3, [pc, #576]	; (8001ca0 <powf+0x2a8>)
 8001a5e:	f1b9 0f02 	cmp.w	r9, #2
 8001a62:	e9cd 0106 	strd	r0, r1, [sp, #24]
 8001a66:	e9cd 2308 	strd	r2, r3, [sp, #32]
 8001a6a:	d031      	beq.n	8001ad0 <powf+0xd8>
 8001a6c:	a802      	add	r0, sp, #8
 8001a6e:	f000 fcc2 	bl	80023f6 <matherr>
 8001a72:	bb38      	cbnz	r0, 8001ac4 <powf+0xcc>
 8001a74:	e05d      	b.n	8001b32 <powf+0x13a>
 8001a76:	4628      	mov	r0, r5
 8001a78:	f7ff f82e 	bl	8000ad8 <__aeabi_fcmpeq>
 8001a7c:	2800      	cmp	r0, #0
 8001a7e:	d05d      	beq.n	8001b3c <powf+0x144>
 8001a80:	2100      	movs	r1, #0
 8001a82:	4620      	mov	r0, r4
 8001a84:	f7ff f828 	bl	8000ad8 <__aeabi_fcmpeq>
 8001a88:	4607      	mov	r7, r0
 8001a8a:	2800      	cmp	r0, #0
 8001a8c:	d029      	beq.n	8001ae2 <powf+0xea>
 8001a8e:	2301      	movs	r3, #1
 8001a90:	9302      	str	r3, [sp, #8]
 8001a92:	4b82      	ldr	r3, [pc, #520]	; (8001c9c <powf+0x2a4>)
 8001a94:	4628      	mov	r0, r5
 8001a96:	9303      	str	r3, [sp, #12]
 8001a98:	f8cd a028 	str.w	sl, [sp, #40]	; 0x28
 8001a9c:	f7fe fcd2 	bl	8000444 <__aeabi_f2d>
 8001aa0:	e9cd 0104 	strd	r0, r1, [sp, #16]
 8001aa4:	4620      	mov	r0, r4
 8001aa6:	f7fe fccd 	bl	8000444 <__aeabi_f2d>
 8001aaa:	2200      	movs	r2, #0
 8001aac:	2300      	movs	r3, #0
 8001aae:	e9cd 0106 	strd	r0, r1, [sp, #24]
 8001ab2:	e9cd 2308 	strd	r2, r3, [sp, #32]
 8001ab6:	f1b9 0f00 	cmp.w	r9, #0
 8001aba:	d0d7      	beq.n	8001a6c <powf+0x74>
 8001abc:	2200      	movs	r2, #0
 8001abe:	4b78      	ldr	r3, [pc, #480]	; (8001ca0 <powf+0x2a8>)
 8001ac0:	e9cd 2308 	strd	r2, r3, [sp, #32]
 8001ac4:	9b0a      	ldr	r3, [sp, #40]	; 0x28
 8001ac6:	b11b      	cbz	r3, 8001ad0 <powf+0xd8>
 8001ac8:	f000 fd48 	bl	800255c <__errno>
 8001acc:	9b0a      	ldr	r3, [sp, #40]	; 0x28
 8001ace:	6003      	str	r3, [r0, #0]
 8001ad0:	e9dd 0108 	ldrd	r0, r1, [sp, #32]
 8001ad4:	f7fe fd0e 	bl	80004f4 <__aeabi_d2f>
 8001ad8:	4606      	mov	r6, r0
 8001ada:	4630      	mov	r0, r6
 8001adc:	b00d      	add	sp, #52	; 0x34
 8001ade:	e8bd 8ff0 	ldmia.w	sp!, {r4, r5, r6, r7, r8, r9, sl, fp, pc}
 8001ae2:	4620      	mov	r0, r4
 8001ae4:	f000 fc8c 	bl	8002400 <finitef>
 8001ae8:	2800      	cmp	r0, #0
 8001aea:	d0f6      	beq.n	8001ada <powf+0xe2>
 8001aec:	2100      	movs	r1, #0
 8001aee:	4620      	mov	r0, r4
 8001af0:	f7fe fffc 	bl	8000aec <__aeabi_fcmplt>
 8001af4:	2800      	cmp	r0, #0
 8001af6:	d0f0      	beq.n	8001ada <powf+0xe2>
 8001af8:	2301      	movs	r3, #1
 8001afa:	9302      	str	r3, [sp, #8]
 8001afc:	4b67      	ldr	r3, [pc, #412]	; (8001c9c <powf+0x2a4>)
 8001afe:	4628      	mov	r0, r5
 8001b00:	9303      	str	r3, [sp, #12]
 8001b02:	970a      	str	r7, [sp, #40]	; 0x28
 8001b04:	f7fe fc9e 	bl	8000444 <__aeabi_f2d>
 8001b08:	e9cd 0104 	strd	r0, r1, [sp, #16]
 8001b0c:	4620      	mov	r0, r4
 8001b0e:	f7fe fc99 	bl	8000444 <__aeabi_f2d>
 8001b12:	f998 3000 	ldrsb.w	r3, [r8]
 8001b16:	e9cd 0106 	strd	r0, r1, [sp, #24]
 8001b1a:	b923      	cbnz	r3, 8001b26 <powf+0x12e>
 8001b1c:	2200      	movs	r2, #0
 8001b1e:	2300      	movs	r3, #0
 8001b20:	e9cd 2308 	strd	r2, r3, [sp, #32]
 8001b24:	e7a2      	b.n	8001a6c <powf+0x74>
 8001b26:	2000      	movs	r0, #0
 8001b28:	495e      	ldr	r1, [pc, #376]	; (8001ca4 <powf+0x2ac>)
 8001b2a:	2b02      	cmp	r3, #2
 8001b2c:	e9cd 0108 	strd	r0, r1, [sp, #32]
 8001b30:	d19c      	bne.n	8001a6c <powf+0x74>
 8001b32:	f000 fd13 	bl	800255c <__errno>
 8001b36:	2321      	movs	r3, #33	; 0x21
 8001b38:	6003      	str	r3, [r0, #0]
 8001b3a:	e7c3      	b.n	8001ac4 <powf+0xcc>
 8001b3c:	4630      	mov	r0, r6
 8001b3e:	f000 fc5f 	bl	8002400 <finitef>
 8001b42:	4681      	mov	r9, r0
 8001b44:	2800      	cmp	r0, #0
 8001b46:	d17b      	bne.n	8001c40 <powf+0x248>
 8001b48:	4628      	mov	r0, r5
 8001b4a:	f000 fc59 	bl	8002400 <finitef>
 8001b4e:	2800      	cmp	r0, #0
 8001b50:	d076      	beq.n	8001c40 <powf+0x248>
 8001b52:	4620      	mov	r0, r4
 8001b54:	f000 fc54 	bl	8002400 <finitef>
 8001b58:	2800      	cmp	r0, #0
 8001b5a:	d071      	beq.n	8001c40 <powf+0x248>
 8001b5c:	4628      	mov	r0, r5
 8001b5e:	f7fe fc71 	bl	8000444 <__aeabi_f2d>
 8001b62:	4682      	mov	sl, r0
 8001b64:	4620      	mov	r0, r4
 8001b66:	468b      	mov	fp, r1
 8001b68:	f7fe fc6c 	bl	8000444 <__aeabi_f2d>
 8001b6c:	4602      	mov	r2, r0
 8001b6e:	460b      	mov	r3, r1
 8001b70:	4630      	mov	r0, r6
 8001b72:	4631      	mov	r1, r6
 8001b74:	e9cd 2300 	strd	r2, r3, [sp]
 8001b78:	f7fe ffe0 	bl	8000b3c <__aeabi_fcmpun>
 8001b7c:	e9dd 2300 	ldrd	r2, r3, [sp]
 8001b80:	f998 8000 	ldrsb.w	r8, [r8]
 8001b84:	4945      	ldr	r1, [pc, #276]	; (8001c9c <powf+0x2a4>)
 8001b86:	b1b0      	cbz	r0, 8001bb6 <powf+0x1be>
 8001b88:	2001      	movs	r0, #1
 8001b8a:	f8cd 9028 	str.w	r9, [sp, #40]	; 0x28
 8001b8e:	e9cd 0102 	strd	r0, r1, [sp, #8]
 8001b92:	e9cd ab04 	strd	sl, fp, [sp, #16]
 8001b96:	e9cd 2306 	strd	r2, r3, [sp, #24]
 8001b9a:	f1b8 0f00 	cmp.w	r8, #0
 8001b9e:	d0bd      	beq.n	8001b1c <powf+0x124>
 8001ba0:	2100      	movs	r1, #0
 8001ba2:	4608      	mov	r0, r1
 8001ba4:	f7fe feb8 	bl	8000918 <__aeabi_fdiv>
 8001ba8:	f7fe fc4c 	bl	8000444 <__aeabi_f2d>
 8001bac:	f1b8 0f02 	cmp.w	r8, #2
 8001bb0:	e9cd 0108 	strd	r0, r1, [sp, #32]
 8001bb4:	e7bc      	b.n	8001b30 <powf+0x138>
 8001bb6:	2603      	movs	r6, #3
 8001bb8:	900a      	str	r0, [sp, #40]	; 0x28
 8001bba:	e9cd 6102 	strd	r6, r1, [sp, #8]
 8001bbe:	4620      	mov	r0, r4
 8001bc0:	f04f 517c 	mov.w	r1, #1056964608	; 0x3f000000
 8001bc4:	e9cd ab04 	strd	sl, fp, [sp, #16]
 8001bc8:	e9cd 2306 	strd	r2, r3, [sp, #24]
 8001bcc:	f7fe fdf0 	bl	80007b0 <__aeabi_fmul>
 8001bd0:	4604      	mov	r4, r0
 8001bd2:	f1b8 0f00 	cmp.w	r8, #0
 8001bd6:	d11e      	bne.n	8001c16 <powf+0x21e>
 8001bd8:	f04f 4260 	mov.w	r2, #3758096384	; 0xe0000000
 8001bdc:	4b32      	ldr	r3, [pc, #200]	; (8001ca8 <powf+0x2b0>)
 8001bde:	2100      	movs	r1, #0
 8001be0:	4628      	mov	r0, r5
 8001be2:	e9cd 2308 	strd	r2, r3, [sp, #32]
 8001be6:	f7fe ff81 	bl	8000aec <__aeabi_fcmplt>
 8001bea:	2800      	cmp	r0, #0
 8001bec:	d04e      	beq.n	8001c8c <powf+0x294>
 8001bee:	4620      	mov	r0, r4
 8001bf0:	f000 fc12 	bl	8002418 <rintf>
 8001bf4:	4621      	mov	r1, r4
 8001bf6:	f7fe ff6f 	bl	8000ad8 <__aeabi_fcmpeq>
 8001bfa:	b920      	cbnz	r0, 8001c06 <powf+0x20e>
 8001bfc:	f04f 4260 	mov.w	r2, #3758096384	; 0xe0000000
 8001c00:	4b2a      	ldr	r3, [pc, #168]	; (8001cac <powf+0x2b4>)
 8001c02:	e9cd 2308 	strd	r2, r3, [sp, #32]
 8001c06:	f997 3000 	ldrsb.w	r3, [r7]
 8001c0a:	2b02      	cmp	r3, #2
 8001c0c:	d13e      	bne.n	8001c8c <powf+0x294>
 8001c0e:	f000 fca5 	bl	800255c <__errno>
 8001c12:	2322      	movs	r3, #34	; 0x22
 8001c14:	e790      	b.n	8001b38 <powf+0x140>
 8001c16:	2200      	movs	r2, #0
 8001c18:	4b25      	ldr	r3, [pc, #148]	; (8001cb0 <powf+0x2b8>)
 8001c1a:	2100      	movs	r1, #0
 8001c1c:	4628      	mov	r0, r5
 8001c1e:	e9cd 2308 	strd	r2, r3, [sp, #32]
 8001c22:	f7fe ff63 	bl	8000aec <__aeabi_fcmplt>
 8001c26:	2800      	cmp	r0, #0
 8001c28:	d0ed      	beq.n	8001c06 <powf+0x20e>
 8001c2a:	4620      	mov	r0, r4
 8001c2c:	f000 fbf4 	bl	8002418 <rintf>
 8001c30:	4621      	mov	r1, r4
 8001c32:	f7fe ff51 	bl	8000ad8 <__aeabi_fcmpeq>
 8001c36:	2800      	cmp	r0, #0
 8001c38:	d1e5      	bne.n	8001c06 <powf+0x20e>
 8001c3a:	2200      	movs	r2, #0
 8001c3c:	4b19      	ldr	r3, [pc, #100]	; (8001ca4 <powf+0x2ac>)
 8001c3e:	e7e0      	b.n	8001c02 <powf+0x20a>
 8001c40:	2100      	movs	r1, #0
 8001c42:	4630      	mov	r0, r6
 8001c44:	f7fe ff48 	bl	8000ad8 <__aeabi_fcmpeq>
 8001c48:	2800      	cmp	r0, #0
 8001c4a:	f43f af46 	beq.w	8001ada <powf+0xe2>
 8001c4e:	4628      	mov	r0, r5
 8001c50:	f000 fbd6 	bl	8002400 <finitef>
 8001c54:	2800      	cmp	r0, #0
 8001c56:	f43f af40 	beq.w	8001ada <powf+0xe2>
 8001c5a:	4620      	mov	r0, r4
 8001c5c:	f000 fbd0 	bl	8002400 <finitef>
 8001c60:	2800      	cmp	r0, #0
 8001c62:	f43f af3a 	beq.w	8001ada <powf+0xe2>
 8001c66:	2304      	movs	r3, #4
 8001c68:	9302      	str	r3, [sp, #8]
 8001c6a:	4b0c      	ldr	r3, [pc, #48]	; (8001c9c <powf+0x2a4>)
 8001c6c:	4628      	mov	r0, r5
 8001c6e:	9303      	str	r3, [sp, #12]
 8001c70:	2300      	movs	r3, #0
 8001c72:	930a      	str	r3, [sp, #40]	; 0x28
 8001c74:	f7fe fbe6 	bl	8000444 <__aeabi_f2d>
 8001c78:	e9cd 0104 	strd	r0, r1, [sp, #16]
 8001c7c:	4620      	mov	r0, r4
 8001c7e:	f7fe fbe1 	bl	8000444 <__aeabi_f2d>
 8001c82:	2200      	movs	r2, #0
 8001c84:	e9cd 0106 	strd	r0, r1, [sp, #24]
 8001c88:	2300      	movs	r3, #0
 8001c8a:	e7ba      	b.n	8001c02 <powf+0x20a>
 8001c8c:	a802      	add	r0, sp, #8
 8001c8e:	f000 fbb2 	bl	80023f6 <matherr>
 8001c92:	2800      	cmp	r0, #0
 8001c94:	f47f af16 	bne.w	8001ac4 <powf+0xcc>
 8001c98:	e7b9      	b.n	8001c0e <powf+0x216>
 8001c9a:	bf00      	nop
 8001c9c:	080025e4 	.word	0x080025e4
 8001ca0:	3ff00000 	.word	0x3ff00000
 8001ca4:	fff00000 	.word	0xfff00000
 8001ca8:	47efffff 	.word	0x47efffff
 8001cac:	c7efffff 	.word	0xc7efffff
 8001cb0:	7ff00000 	.word	0x7ff00000
 8001cb4:	20000008 	.word	0x20000008

08001cb8 <__ieee754_powf>:
 8001cb8:	e92d 4ff0 	stmdb	sp!, {r4, r5, r6, r7, r8, r9, sl, fp, lr}
 8001cbc:	b087      	sub	sp, #28
 8001cbe:	9101      	str	r1, [sp, #4]
 8001cc0:	9c01      	ldr	r4, [sp, #4]
 8001cc2:	4681      	mov	r9, r0
 8001cc4:	f034 4700 	bics.w	r7, r4, #2147483648	; 0x80000000
 8001cc8:	f000 8324 	beq.w	8002314 <__ieee754_powf+0x65c>
 8001ccc:	f020 4600 	bic.w	r6, r0, #2147483648	; 0x80000000
 8001cd0:	f1b6 4fff 	cmp.w	r6, #2139095040	; 0x7f800000
 8001cd4:	4680      	mov	r8, r0
 8001cd6:	dc06      	bgt.n	8001ce6 <__ieee754_powf+0x2e>
 8001cd8:	f1b7 4fff 	cmp.w	r7, #2139095040	; 0x7f800000
 8001cdc:	dd09      	ble.n	8001cf2 <__ieee754_powf+0x3a>
 8001cde:	f1b6 5f7e 	cmp.w	r6, #1065353216	; 0x3f800000
 8001ce2:	f000 8317 	beq.w	8002314 <__ieee754_powf+0x65c>
 8001ce6:	4885      	ldr	r0, [pc, #532]	; (8001efc <__ieee754_powf+0x244>)
 8001ce8:	b007      	add	sp, #28
 8001cea:	e8bd 4ff0 	ldmia.w	sp!, {r4, r5, r6, r7, r8, r9, sl, fp, lr}
 8001cee:	f000 bb8f 	b.w	8002410 <nanf>
 8001cf2:	2800      	cmp	r0, #0
 8001cf4:	da1d      	bge.n	8001d32 <__ieee754_powf+0x7a>
 8001cf6:	f1b7 4f97 	cmp.w	r7, #1266679808	; 0x4b800000
 8001cfa:	da2b      	bge.n	8001d54 <__ieee754_powf+0x9c>
 8001cfc:	f1b7 5f7e 	cmp.w	r7, #1065353216	; 0x3f800000
 8001d00:	db30      	blt.n	8001d64 <__ieee754_powf+0xac>
 8001d02:	15fb      	asrs	r3, r7, #23
 8001d04:	f1c3 0396 	rsb	r3, r3, #150	; 0x96
 8001d08:	fa47 f503 	asr.w	r5, r7, r3
 8001d0c:	fa05 f303 	lsl.w	r3, r5, r3
 8001d10:	42bb      	cmp	r3, r7
 8001d12:	d127      	bne.n	8001d64 <__ieee754_powf+0xac>
 8001d14:	f005 0501 	and.w	r5, r5, #1
 8001d18:	f1c5 0502 	rsb	r5, r5, #2
 8001d1c:	f1b7 5f7e 	cmp.w	r7, #1065353216	; 0x3f800000
 8001d20:	d122      	bne.n	8001d68 <__ieee754_powf+0xb0>
 8001d22:	2c00      	cmp	r4, #0
 8001d24:	4649      	mov	r1, r9
 8001d26:	da11      	bge.n	8001d4c <__ieee754_powf+0x94>
 8001d28:	f04f 507e 	mov.w	r0, #1065353216	; 0x3f800000
 8001d2c:	f7fe fdf4 	bl	8000918 <__aeabi_fdiv>
 8001d30:	e021      	b.n	8001d76 <__ieee754_powf+0xbe>
 8001d32:	2500      	movs	r5, #0
 8001d34:	f1b7 4fff 	cmp.w	r7, #2139095040	; 0x7f800000
 8001d38:	d1f0      	bne.n	8001d1c <__ieee754_powf+0x64>
 8001d3a:	f1b6 5f7e 	cmp.w	r6, #1065353216	; 0x3f800000
 8001d3e:	f000 82e9 	beq.w	8002314 <__ieee754_powf+0x65c>
 8001d42:	dd09      	ble.n	8001d58 <__ieee754_powf+0xa0>
 8001d44:	2c00      	cmp	r4, #0
 8001d46:	f280 82e8 	bge.w	800231a <__ieee754_powf+0x662>
 8001d4a:	2100      	movs	r1, #0
 8001d4c:	4608      	mov	r0, r1
 8001d4e:	b007      	add	sp, #28
 8001d50:	e8bd 8ff0 	ldmia.w	sp!, {r4, r5, r6, r7, r8, r9, sl, fp, pc}
 8001d54:	2502      	movs	r5, #2
 8001d56:	e7ed      	b.n	8001d34 <__ieee754_powf+0x7c>
 8001d58:	2c00      	cmp	r4, #0
 8001d5a:	daf6      	bge.n	8001d4a <__ieee754_powf+0x92>
 8001d5c:	9b01      	ldr	r3, [sp, #4]
 8001d5e:	f103 4100 	add.w	r1, r3, #2147483648	; 0x80000000
 8001d62:	e7f3      	b.n	8001d4c <__ieee754_powf+0x94>
 8001d64:	2500      	movs	r5, #0
 8001d66:	e7d9      	b.n	8001d1c <__ieee754_powf+0x64>
 8001d68:	f1b4 4f80 	cmp.w	r4, #1073741824	; 0x40000000
 8001d6c:	d105      	bne.n	8001d7a <__ieee754_powf+0xc2>
 8001d6e:	4649      	mov	r1, r9
 8001d70:	4608      	mov	r0, r1
 8001d72:	f7fe fd1d 	bl	80007b0 <__aeabi_fmul>
 8001d76:	4601      	mov	r1, r0
 8001d78:	e7e8      	b.n	8001d4c <__ieee754_powf+0x94>
 8001d7a:	f1b4 5f7c 	cmp.w	r4, #1056964608	; 0x3f000000
 8001d7e:	4648      	mov	r0, r9
 8001d80:	d107      	bne.n	8001d92 <__ieee754_powf+0xda>
 8001d82:	f1b8 0f00 	cmp.w	r8, #0
 8001d86:	db04      	blt.n	8001d92 <__ieee754_powf+0xda>
 8001d88:	b007      	add	sp, #28
 8001d8a:	e8bd 4ff0 	ldmia.w	sp!, {r4, r5, r6, r7, r8, r9, sl, fp, lr}
 8001d8e:	f000 badf 	b.w	8002350 <__ieee754_sqrtf>
 8001d92:	f000 fb32 	bl	80023fa <fabsf>
 8001d96:	4601      	mov	r1, r0
 8001d98:	b126      	cbz	r6, 8001da4 <__ieee754_powf+0xec>
 8001d9a:	f028 4340 	bic.w	r3, r8, #3221225472	; 0xc0000000
 8001d9e:	f1b3 5f7e 	cmp.w	r3, #1065353216	; 0x3f800000
 8001da2:	d118      	bne.n	8001dd6 <__ieee754_powf+0x11e>
 8001da4:	2c00      	cmp	r4, #0
 8001da6:	da04      	bge.n	8001db2 <__ieee754_powf+0xfa>
 8001da8:	f04f 507e 	mov.w	r0, #1065353216	; 0x3f800000
 8001dac:	f7fe fdb4 	bl	8000918 <__aeabi_fdiv>
 8001db0:	4601      	mov	r1, r0
 8001db2:	f1b8 0f00 	cmp.w	r8, #0
 8001db6:	dac9      	bge.n	8001d4c <__ieee754_powf+0x94>
 8001db8:	f1a6 507e 	sub.w	r0, r6, #1065353216	; 0x3f800000
 8001dbc:	ea50 0305 	orrs.w	r3, r0, r5
 8001dc0:	d104      	bne.n	8001dcc <__ieee754_powf+0x114>
 8001dc2:	4608      	mov	r0, r1
 8001dc4:	f7fe fbea 	bl	800059c <__aeabi_fsub>
 8001dc8:	4601      	mov	r1, r0
 8001dca:	e7af      	b.n	8001d2c <__ieee754_powf+0x74>
 8001dcc:	2d01      	cmp	r5, #1
 8001dce:	d1bd      	bne.n	8001d4c <__ieee754_powf+0x94>
 8001dd0:	f101 4100 	add.w	r1, r1, #2147483648	; 0x80000000
 8001dd4:	e7ba      	b.n	8001d4c <__ieee754_powf+0x94>
 8001dd6:	ea4f 78d8 	mov.w	r8, r8, lsr #31
 8001dda:	f108 33ff 	add.w	r3, r8, #4294967295
 8001dde:	9303      	str	r3, [sp, #12]
 8001de0:	432b      	orrs	r3, r5
 8001de2:	d101      	bne.n	8001de8 <__ieee754_powf+0x130>
 8001de4:	4649      	mov	r1, r9
 8001de6:	e7ec      	b.n	8001dc2 <__ieee754_powf+0x10a>
 8001de8:	f1b7 4f9a 	cmp.w	r7, #1291845632	; 0x4d000000
 8001dec:	f340 8098 	ble.w	8001f20 <__ieee754_powf+0x268>
 8001df0:	4b43      	ldr	r3, [pc, #268]	; (8001f00 <__ieee754_powf+0x248>)
 8001df2:	429e      	cmp	r6, r3
 8001df4:	dc03      	bgt.n	8001dfe <__ieee754_powf+0x146>
 8001df6:	2c00      	cmp	r4, #0
 8001df8:	daa7      	bge.n	8001d4a <__ieee754_powf+0x92>
 8001dfa:	4942      	ldr	r1, [pc, #264]	; (8001f04 <__ieee754_powf+0x24c>)
 8001dfc:	e7b8      	b.n	8001d70 <__ieee754_powf+0xb8>
 8001dfe:	4b42      	ldr	r3, [pc, #264]	; (8001f08 <__ieee754_powf+0x250>)
 8001e00:	429e      	cmp	r6, r3
 8001e02:	dd02      	ble.n	8001e0a <__ieee754_powf+0x152>
 8001e04:	2c00      	cmp	r4, #0
 8001e06:	dcf8      	bgt.n	8001dfa <__ieee754_powf+0x142>
 8001e08:	e79f      	b.n	8001d4a <__ieee754_powf+0x92>
 8001e0a:	f04f 517e 	mov.w	r1, #1065353216	; 0x3f800000
 8001e0e:	f7fe fbc5 	bl	800059c <__aeabi_fsub>
 8001e12:	493e      	ldr	r1, [pc, #248]	; (8001f0c <__ieee754_powf+0x254>)
 8001e14:	4606      	mov	r6, r0
 8001e16:	f7fe fccb 	bl	80007b0 <__aeabi_fmul>
 8001e1a:	493d      	ldr	r1, [pc, #244]	; (8001f10 <__ieee754_powf+0x258>)
 8001e1c:	4607      	mov	r7, r0
 8001e1e:	4630      	mov	r0, r6
 8001e20:	f7fe fcc6 	bl	80007b0 <__aeabi_fmul>
 8001e24:	f04f 517a 	mov.w	r1, #1048576000	; 0x3e800000
 8001e28:	4680      	mov	r8, r0
 8001e2a:	4630      	mov	r0, r6
 8001e2c:	f7fe fcc0 	bl	80007b0 <__aeabi_fmul>
 8001e30:	4601      	mov	r1, r0
 8001e32:	4838      	ldr	r0, [pc, #224]	; (8001f14 <__ieee754_powf+0x25c>)
 8001e34:	f7fe fbb2 	bl	800059c <__aeabi_fsub>
 8001e38:	4631      	mov	r1, r6
 8001e3a:	f7fe fcb9 	bl	80007b0 <__aeabi_fmul>
 8001e3e:	4601      	mov	r1, r0
 8001e40:	f04f 507c 	mov.w	r0, #1056964608	; 0x3f000000
 8001e44:	f7fe fbaa 	bl	800059c <__aeabi_fsub>
 8001e48:	4631      	mov	r1, r6
 8001e4a:	4681      	mov	r9, r0
 8001e4c:	4630      	mov	r0, r6
 8001e4e:	f7fe fcaf 	bl	80007b0 <__aeabi_fmul>
 8001e52:	4601      	mov	r1, r0
 8001e54:	4648      	mov	r0, r9
 8001e56:	f7fe fcab 	bl	80007b0 <__aeabi_fmul>
 8001e5a:	492f      	ldr	r1, [pc, #188]	; (8001f18 <__ieee754_powf+0x260>)
 8001e5c:	f7fe fca8 	bl	80007b0 <__aeabi_fmul>
 8001e60:	4601      	mov	r1, r0
 8001e62:	4640      	mov	r0, r8
 8001e64:	f7fe fb9a 	bl	800059c <__aeabi_fsub>
 8001e68:	4601      	mov	r1, r0
 8001e6a:	4606      	mov	r6, r0
 8001e6c:	4638      	mov	r0, r7
 8001e6e:	f7fe fb97 	bl	80005a0 <__addsf3>
 8001e72:	f420 6a7f 	bic.w	sl, r0, #4080	; 0xff0
 8001e76:	f02a 0a0f 	bic.w	sl, sl, #15
 8001e7a:	4639      	mov	r1, r7
 8001e7c:	4650      	mov	r0, sl
 8001e7e:	f7fe fb8d 	bl	800059c <__aeabi_fsub>
 8001e82:	4601      	mov	r1, r0
 8001e84:	4630      	mov	r0, r6
 8001e86:	f7fe fb89 	bl	800059c <__aeabi_fsub>
 8001e8a:	f424 647f 	bic.w	r4, r4, #4080	; 0xff0
 8001e8e:	9b03      	ldr	r3, [sp, #12]
 8001e90:	3d01      	subs	r5, #1
 8001e92:	f024 040f 	bic.w	r4, r4, #15
 8001e96:	432b      	orrs	r3, r5
 8001e98:	4606      	mov	r6, r0
 8001e9a:	4621      	mov	r1, r4
 8001e9c:	9801      	ldr	r0, [sp, #4]
 8001e9e:	bf0c      	ite	eq
 8001ea0:	4d1e      	ldreq	r5, [pc, #120]	; (8001f1c <__ieee754_powf+0x264>)
 8001ea2:	f04f 557e 	movne.w	r5, #1065353216	; 0x3f800000
 8001ea6:	f7fe fb79 	bl	800059c <__aeabi_fsub>
 8001eaa:	4651      	mov	r1, sl
 8001eac:	f7fe fc80 	bl	80007b0 <__aeabi_fmul>
 8001eb0:	9901      	ldr	r1, [sp, #4]
 8001eb2:	4607      	mov	r7, r0
 8001eb4:	4630      	mov	r0, r6
 8001eb6:	f7fe fc7b 	bl	80007b0 <__aeabi_fmul>
 8001eba:	4601      	mov	r1, r0
 8001ebc:	4638      	mov	r0, r7
 8001ebe:	f7fe fb6f 	bl	80005a0 <__addsf3>
 8001ec2:	4621      	mov	r1, r4
 8001ec4:	4606      	mov	r6, r0
 8001ec6:	4650      	mov	r0, sl
 8001ec8:	f7fe fc72 	bl	80007b0 <__aeabi_fmul>
 8001ecc:	4601      	mov	r1, r0
 8001ece:	4607      	mov	r7, r0
 8001ed0:	4681      	mov	r9, r0
 8001ed2:	4630      	mov	r0, r6
 8001ed4:	f7fe fb64 	bl	80005a0 <__addsf3>
 8001ed8:	2800      	cmp	r0, #0
 8001eda:	4682      	mov	sl, r0
 8001edc:	4680      	mov	r8, r0
 8001ede:	f020 4400 	bic.w	r4, r0, #2147483648	; 0x80000000
 8001ee2:	f340 81fb 	ble.w	80022dc <__ieee754_powf+0x624>
 8001ee6:	f1b4 4f86 	cmp.w	r4, #1124073472	; 0x43000000
 8001eea:	f340 8149 	ble.w	8002180 <__ieee754_powf+0x4c8>
 8001eee:	4905      	ldr	r1, [pc, #20]	; (8001f04 <__ieee754_powf+0x24c>)
 8001ef0:	4628      	mov	r0, r5
 8001ef2:	f7fe fc5d 	bl	80007b0 <__aeabi_fmul>
 8001ef6:	4903      	ldr	r1, [pc, #12]	; (8001f04 <__ieee754_powf+0x24c>)
 8001ef8:	e73b      	b.n	8001d72 <__ieee754_powf+0xba>
 8001efa:	bf00      	nop
 8001efc:	080025e8 	.word	0x080025e8
 8001f00:	3f7ffff7 	.word	0x3f7ffff7
 8001f04:	7149f2ca 	.word	0x7149f2ca
 8001f08:	3f800007 	.word	0x3f800007
 8001f0c:	3fb8aa00 	.word	0x3fb8aa00
 8001f10:	36eca570 	.word	0x36eca570
 8001f14:	3eaaaaab 	.word	0x3eaaaaab
 8001f18:	3fb8aa3b 	.word	0x3fb8aa3b
 8001f1c:	bf800000 	.word	0xbf800000
 8001f20:	f5b6 0f00 	cmp.w	r6, #8388608	; 0x800000
 8001f24:	f280 810a 	bge.w	800213c <__ieee754_powf+0x484>
 8001f28:	f04f 4197 	mov.w	r1, #1266679808	; 0x4b800000
 8001f2c:	f7fe fc40 	bl	80007b0 <__aeabi_fmul>
 8001f30:	f06f 0217 	mvn.w	r2, #23
 8001f34:	4606      	mov	r6, r0
 8001f36:	15f3      	asrs	r3, r6, #23
 8001f38:	3b7f      	subs	r3, #127	; 0x7f
 8001f3a:	441a      	add	r2, r3
 8001f3c:	4b81      	ldr	r3, [pc, #516]	; (8002144 <__ieee754_powf+0x48c>)
 8001f3e:	f3c6 0016 	ubfx	r0, r6, #0, #23
 8001f42:	4298      	cmp	r0, r3
 8001f44:	f040 567e 	orr.w	r6, r0, #1065353216	; 0x3f800000
 8001f48:	dd06      	ble.n	8001f58 <__ieee754_powf+0x2a0>
 8001f4a:	4b7f      	ldr	r3, [pc, #508]	; (8002148 <__ieee754_powf+0x490>)
 8001f4c:	4298      	cmp	r0, r3
 8001f4e:	f340 80f7 	ble.w	8002140 <__ieee754_powf+0x488>
 8001f52:	3201      	adds	r2, #1
 8001f54:	f5a6 0600 	sub.w	r6, r6, #8388608	; 0x800000
 8001f58:	2700      	movs	r7, #0
 8001f5a:	4b7c      	ldr	r3, [pc, #496]	; (800214c <__ieee754_powf+0x494>)
 8001f5c:	4630      	mov	r0, r6
 8001f5e:	f853 3027 	ldr.w	r3, [r3, r7, lsl #2]
 8001f62:	9205      	str	r2, [sp, #20]
 8001f64:	4619      	mov	r1, r3
 8001f66:	9302      	str	r3, [sp, #8]
 8001f68:	f7fe fb18 	bl	800059c <__aeabi_fsub>
 8001f6c:	4631      	mov	r1, r6
 8001f6e:	4683      	mov	fp, r0
 8001f70:	9802      	ldr	r0, [sp, #8]
 8001f72:	f7fe fb15 	bl	80005a0 <__addsf3>
 8001f76:	4601      	mov	r1, r0
 8001f78:	f04f 507e 	mov.w	r0, #1065353216	; 0x3f800000
 8001f7c:	f7fe fccc 	bl	8000918 <__aeabi_fdiv>
 8001f80:	4601      	mov	r1, r0
 8001f82:	9004      	str	r0, [sp, #16]
 8001f84:	4658      	mov	r0, fp
 8001f86:	f7fe fc13 	bl	80007b0 <__aeabi_fmul>
 8001f8a:	46b2      	mov	sl, r6
 8001f8c:	1076      	asrs	r6, r6, #1
 8001f8e:	f046 5600 	orr.w	r6, r6, #536870912	; 0x20000000
 8001f92:	f420 687f 	bic.w	r8, r0, #4080	; 0xff0
 8001f96:	f506 2680 	add.w	r6, r6, #262144	; 0x40000
 8001f9a:	f028 080f 	bic.w	r8, r8, #15
 8001f9e:	eb06 5647 	add.w	r6, r6, r7, lsl #21
 8001fa2:	4681      	mov	r9, r0
 8001fa4:	4631      	mov	r1, r6
 8001fa6:	4640      	mov	r0, r8
 8001fa8:	f7fe fc02 	bl	80007b0 <__aeabi_fmul>
 8001fac:	4601      	mov	r1, r0
 8001fae:	4658      	mov	r0, fp
 8001fb0:	f7fe faf4 	bl	800059c <__aeabi_fsub>
 8001fb4:	9902      	ldr	r1, [sp, #8]
 8001fb6:	4683      	mov	fp, r0
 8001fb8:	4630      	mov	r0, r6
 8001fba:	f7fe faef 	bl	800059c <__aeabi_fsub>
 8001fbe:	4601      	mov	r1, r0
 8001fc0:	4650      	mov	r0, sl
 8001fc2:	f7fe faeb 	bl	800059c <__aeabi_fsub>
 8001fc6:	4641      	mov	r1, r8
 8001fc8:	f7fe fbf2 	bl	80007b0 <__aeabi_fmul>
 8001fcc:	4601      	mov	r1, r0
 8001fce:	4658      	mov	r0, fp
 8001fd0:	f7fe fae4 	bl	800059c <__aeabi_fsub>
 8001fd4:	9b04      	ldr	r3, [sp, #16]
 8001fd6:	4619      	mov	r1, r3
 8001fd8:	f7fe fbea 	bl	80007b0 <__aeabi_fmul>
 8001fdc:	4649      	mov	r1, r9
 8001fde:	4683      	mov	fp, r0
 8001fe0:	4648      	mov	r0, r9
 8001fe2:	f7fe fbe5 	bl	80007b0 <__aeabi_fmul>
 8001fe6:	4606      	mov	r6, r0
 8001fe8:	4959      	ldr	r1, [pc, #356]	; (8002150 <__ieee754_powf+0x498>)
 8001fea:	f7fe fbe1 	bl	80007b0 <__aeabi_fmul>
 8001fee:	4959      	ldr	r1, [pc, #356]	; (8002154 <__ieee754_powf+0x49c>)
 8001ff0:	f7fe fad6 	bl	80005a0 <__addsf3>
 8001ff4:	4631      	mov	r1, r6
 8001ff6:	f7fe fbdb 	bl	80007b0 <__aeabi_fmul>
 8001ffa:	4957      	ldr	r1, [pc, #348]	; (8002158 <__ieee754_powf+0x4a0>)
 8001ffc:	f7fe fad0 	bl	80005a0 <__addsf3>
 8002000:	4631      	mov	r1, r6
 8002002:	f7fe fbd5 	bl	80007b0 <__aeabi_fmul>
 8002006:	4955      	ldr	r1, [pc, #340]	; (800215c <__ieee754_powf+0x4a4>)
 8002008:	f7fe faca 	bl	80005a0 <__addsf3>
 800200c:	4631      	mov	r1, r6
 800200e:	f7fe fbcf 	bl	80007b0 <__aeabi_fmul>
 8002012:	4953      	ldr	r1, [pc, #332]	; (8002160 <__ieee754_powf+0x4a8>)
 8002014:	f7fe fac4 	bl	80005a0 <__addsf3>
 8002018:	4631      	mov	r1, r6
 800201a:	f7fe fbc9 	bl	80007b0 <__aeabi_fmul>
 800201e:	4951      	ldr	r1, [pc, #324]	; (8002164 <__ieee754_powf+0x4ac>)
 8002020:	f7fe fabe 	bl	80005a0 <__addsf3>
 8002024:	4631      	mov	r1, r6
 8002026:	4682      	mov	sl, r0
 8002028:	4630      	mov	r0, r6
 800202a:	f7fe fbc1 	bl	80007b0 <__aeabi_fmul>
 800202e:	4601      	mov	r1, r0
 8002030:	4650      	mov	r0, sl
 8002032:	f7fe fbbd 	bl	80007b0 <__aeabi_fmul>
 8002036:	4606      	mov	r6, r0
 8002038:	4649      	mov	r1, r9
 800203a:	4640      	mov	r0, r8
 800203c:	f7fe fab0 	bl	80005a0 <__addsf3>
 8002040:	4659      	mov	r1, fp
 8002042:	f7fe fbb5 	bl	80007b0 <__aeabi_fmul>
 8002046:	4631      	mov	r1, r6
 8002048:	f7fe faaa 	bl	80005a0 <__addsf3>
 800204c:	4641      	mov	r1, r8
 800204e:	4682      	mov	sl, r0
 8002050:	4640      	mov	r0, r8
 8002052:	f7fe fbad 	bl	80007b0 <__aeabi_fmul>
 8002056:	4944      	ldr	r1, [pc, #272]	; (8002168 <__ieee754_powf+0x4b0>)
 8002058:	9002      	str	r0, [sp, #8]
 800205a:	f7fe faa1 	bl	80005a0 <__addsf3>
 800205e:	4651      	mov	r1, sl
 8002060:	f7fe fa9e 	bl	80005a0 <__addsf3>
 8002064:	f420 667f 	bic.w	r6, r0, #4080	; 0xff0
 8002068:	f026 060f 	bic.w	r6, r6, #15
 800206c:	4631      	mov	r1, r6
 800206e:	4640      	mov	r0, r8
 8002070:	f7fe fb9e 	bl	80007b0 <__aeabi_fmul>
 8002074:	493c      	ldr	r1, [pc, #240]	; (8002168 <__ieee754_powf+0x4b0>)
 8002076:	4680      	mov	r8, r0
 8002078:	4630      	mov	r0, r6
 800207a:	f7fe fa8f 	bl	800059c <__aeabi_fsub>
 800207e:	9b02      	ldr	r3, [sp, #8]
 8002080:	4619      	mov	r1, r3
 8002082:	f7fe fa8b 	bl	800059c <__aeabi_fsub>
 8002086:	4601      	mov	r1, r0
 8002088:	4650      	mov	r0, sl
 800208a:	f7fe fa87 	bl	800059c <__aeabi_fsub>
 800208e:	4649      	mov	r1, r9
 8002090:	f7fe fb8e 	bl	80007b0 <__aeabi_fmul>
 8002094:	4659      	mov	r1, fp
 8002096:	4681      	mov	r9, r0
 8002098:	4630      	mov	r0, r6
 800209a:	f7fe fb89 	bl	80007b0 <__aeabi_fmul>
 800209e:	4601      	mov	r1, r0
 80020a0:	4648      	mov	r0, r9
 80020a2:	f7fe fa7d 	bl	80005a0 <__addsf3>
 80020a6:	4682      	mov	sl, r0
 80020a8:	4601      	mov	r1, r0
 80020aa:	4640      	mov	r0, r8
 80020ac:	f7fe fa78 	bl	80005a0 <__addsf3>
 80020b0:	f420 697f 	bic.w	r9, r0, #4080	; 0xff0
 80020b4:	f029 090f 	bic.w	r9, r9, #15
 80020b8:	492c      	ldr	r1, [pc, #176]	; (800216c <__ieee754_powf+0x4b4>)
 80020ba:	4648      	mov	r0, r9
 80020bc:	f7fe fb78 	bl	80007b0 <__aeabi_fmul>
 80020c0:	4641      	mov	r1, r8
 80020c2:	4606      	mov	r6, r0
 80020c4:	4648      	mov	r0, r9
 80020c6:	f7fe fa69 	bl	800059c <__aeabi_fsub>
 80020ca:	4601      	mov	r1, r0
 80020cc:	4650      	mov	r0, sl
 80020ce:	f7fe fa65 	bl	800059c <__aeabi_fsub>
 80020d2:	4927      	ldr	r1, [pc, #156]	; (8002170 <__ieee754_powf+0x4b8>)
 80020d4:	f7fe fb6c 	bl	80007b0 <__aeabi_fmul>
 80020d8:	4926      	ldr	r1, [pc, #152]	; (8002174 <__ieee754_powf+0x4bc>)
 80020da:	4680      	mov	r8, r0
 80020dc:	4648      	mov	r0, r9
 80020de:	f7fe fb67 	bl	80007b0 <__aeabi_fmul>
 80020e2:	4601      	mov	r1, r0
 80020e4:	4640      	mov	r0, r8
 80020e6:	f7fe fa5b 	bl	80005a0 <__addsf3>
 80020ea:	4b23      	ldr	r3, [pc, #140]	; (8002178 <__ieee754_powf+0x4c0>)
 80020ec:	f853 1027 	ldr.w	r1, [r3, r7, lsl #2]
 80020f0:	f7fe fa56 	bl	80005a0 <__addsf3>
 80020f4:	9a05      	ldr	r2, [sp, #20]
 80020f6:	4680      	mov	r8, r0
 80020f8:	4610      	mov	r0, r2
 80020fa:	f7fe fb05 	bl	8000708 <__aeabi_i2f>
 80020fe:	4681      	mov	r9, r0
 8002100:	4b1e      	ldr	r3, [pc, #120]	; (800217c <__ieee754_powf+0x4c4>)
 8002102:	4641      	mov	r1, r8
 8002104:	f853 7027 	ldr.w	r7, [r3, r7, lsl #2]
 8002108:	4630      	mov	r0, r6
 800210a:	f7fe fa49 	bl	80005a0 <__addsf3>
 800210e:	4639      	mov	r1, r7
 8002110:	f7fe fa46 	bl	80005a0 <__addsf3>
 8002114:	4649      	mov	r1, r9
 8002116:	f7fe fa43 	bl	80005a0 <__addsf3>
 800211a:	f420 6a7f 	bic.w	sl, r0, #4080	; 0xff0
 800211e:	f02a 0a0f 	bic.w	sl, sl, #15
 8002122:	4649      	mov	r1, r9
 8002124:	4650      	mov	r0, sl
 8002126:	f7fe fa39 	bl	800059c <__aeabi_fsub>
 800212a:	4639      	mov	r1, r7
 800212c:	f7fe fa36 	bl	800059c <__aeabi_fsub>
 8002130:	4631      	mov	r1, r6
 8002132:	f7fe fa33 	bl	800059c <__aeabi_fsub>
 8002136:	4601      	mov	r1, r0
 8002138:	4640      	mov	r0, r8
 800213a:	e6a4      	b.n	8001e86 <__ieee754_powf+0x1ce>
 800213c:	2200      	movs	r2, #0
 800213e:	e6fa      	b.n	8001f36 <__ieee754_powf+0x27e>
 8002140:	2701      	movs	r7, #1
 8002142:	e70a      	b.n	8001f5a <__ieee754_powf+0x2a2>
 8002144:	001cc471 	.word	0x001cc471
 8002148:	005db3d6 	.word	0x005db3d6
 800214c:	080025ec 	.word	0x080025ec
 8002150:	3e53f142 	.word	0x3e53f142
 8002154:	3e6c3255 	.word	0x3e6c3255
 8002158:	3e8ba305 	.word	0x3e8ba305
 800215c:	3eaaaaab 	.word	0x3eaaaaab
 8002160:	3edb6db7 	.word	0x3edb6db7
 8002164:	3f19999a 	.word	0x3f19999a
 8002168:	40400000 	.word	0x40400000
 800216c:	3f763800 	.word	0x3f763800
 8002170:	3f76384f 	.word	0x3f76384f
 8002174:	369dc3a0 	.word	0x369dc3a0
 8002178:	080025fc 	.word	0x080025fc
 800217c:	080025f4 	.word	0x080025f4
 8002180:	f040 80c0 	bne.w	8002304 <__ieee754_powf+0x64c>
 8002184:	4966      	ldr	r1, [pc, #408]	; (8002320 <__ieee754_powf+0x668>)
 8002186:	4630      	mov	r0, r6
 8002188:	f7fe fa0a 	bl	80005a0 <__addsf3>
 800218c:	4639      	mov	r1, r7
 800218e:	4681      	mov	r9, r0
 8002190:	4650      	mov	r0, sl
 8002192:	f7fe fa03 	bl	800059c <__aeabi_fsub>
 8002196:	4601      	mov	r1, r0
 8002198:	4648      	mov	r0, r9
 800219a:	f7fe fcc5 	bl	8000b28 <__aeabi_fcmpgt>
 800219e:	2800      	cmp	r0, #0
 80021a0:	f47f aea5 	bne.w	8001eee <__ieee754_powf+0x236>
 80021a4:	f44f 0300 	mov.w	r3, #8388608	; 0x800000
 80021a8:	15e4      	asrs	r4, r4, #23
 80021aa:	3c7e      	subs	r4, #126	; 0x7e
 80021ac:	4123      	asrs	r3, r4
 80021ae:	4443      	add	r3, r8
 80021b0:	f3c3 52c7 	ubfx	r2, r3, #23, #8
 80021b4:	495b      	ldr	r1, [pc, #364]	; (8002324 <__ieee754_powf+0x66c>)
 80021b6:	3a7f      	subs	r2, #127	; 0x7f
 80021b8:	f3c3 0416 	ubfx	r4, r3, #0, #23
 80021bc:	4111      	asrs	r1, r2
 80021be:	f444 0400 	orr.w	r4, r4, #8388608	; 0x800000
 80021c2:	f1c2 0217 	rsb	r2, r2, #23
 80021c6:	4114      	asrs	r4, r2
 80021c8:	f1b8 0f00 	cmp.w	r8, #0
 80021cc:	ea23 0101 	bic.w	r1, r3, r1
 80021d0:	4638      	mov	r0, r7
 80021d2:	bfb8      	it	lt
 80021d4:	4264      	neglt	r4, r4
 80021d6:	f7fe f9e1 	bl	800059c <__aeabi_fsub>
 80021da:	4681      	mov	r9, r0
 80021dc:	4631      	mov	r1, r6
 80021de:	4648      	mov	r0, r9
 80021e0:	f7fe f9de 	bl	80005a0 <__addsf3>
 80021e4:	f420 677f 	bic.w	r7, r0, #4080	; 0xff0
 80021e8:	f027 070f 	bic.w	r7, r7, #15
 80021ec:	494e      	ldr	r1, [pc, #312]	; (8002328 <__ieee754_powf+0x670>)
 80021ee:	4638      	mov	r0, r7
 80021f0:	f7fe fade 	bl	80007b0 <__aeabi_fmul>
 80021f4:	4649      	mov	r1, r9
 80021f6:	4680      	mov	r8, r0
 80021f8:	4638      	mov	r0, r7
 80021fa:	f7fe f9cf 	bl	800059c <__aeabi_fsub>
 80021fe:	4601      	mov	r1, r0
 8002200:	4630      	mov	r0, r6
 8002202:	f7fe f9cb 	bl	800059c <__aeabi_fsub>
 8002206:	4949      	ldr	r1, [pc, #292]	; (800232c <__ieee754_powf+0x674>)
 8002208:	f7fe fad2 	bl	80007b0 <__aeabi_fmul>
 800220c:	4948      	ldr	r1, [pc, #288]	; (8002330 <__ieee754_powf+0x678>)
 800220e:	4606      	mov	r6, r0
 8002210:	4638      	mov	r0, r7
 8002212:	f7fe facd 	bl	80007b0 <__aeabi_fmul>
 8002216:	4601      	mov	r1, r0
 8002218:	4630      	mov	r0, r6
 800221a:	f7fe f9c1 	bl	80005a0 <__addsf3>
 800221e:	4607      	mov	r7, r0
 8002220:	4601      	mov	r1, r0
 8002222:	4640      	mov	r0, r8
 8002224:	f7fe f9bc 	bl	80005a0 <__addsf3>
 8002228:	4641      	mov	r1, r8
 800222a:	4606      	mov	r6, r0
 800222c:	f7fe f9b6 	bl	800059c <__aeabi_fsub>
 8002230:	4601      	mov	r1, r0
 8002232:	4638      	mov	r0, r7
 8002234:	f7fe f9b2 	bl	800059c <__aeabi_fsub>
 8002238:	4631      	mov	r1, r6
 800223a:	4680      	mov	r8, r0
 800223c:	4630      	mov	r0, r6
 800223e:	f7fe fab7 	bl	80007b0 <__aeabi_fmul>
 8002242:	4607      	mov	r7, r0
 8002244:	493b      	ldr	r1, [pc, #236]	; (8002334 <__ieee754_powf+0x67c>)
 8002246:	f7fe fab3 	bl	80007b0 <__aeabi_fmul>
 800224a:	493b      	ldr	r1, [pc, #236]	; (8002338 <__ieee754_powf+0x680>)
 800224c:	f7fe f9a6 	bl	800059c <__aeabi_fsub>
 8002250:	4639      	mov	r1, r7
 8002252:	f7fe faad 	bl	80007b0 <__aeabi_fmul>
 8002256:	4939      	ldr	r1, [pc, #228]	; (800233c <__ieee754_powf+0x684>)
 8002258:	f7fe f9a2 	bl	80005a0 <__addsf3>
 800225c:	4639      	mov	r1, r7
 800225e:	f7fe faa7 	bl	80007b0 <__aeabi_fmul>
 8002262:	4937      	ldr	r1, [pc, #220]	; (8002340 <__ieee754_powf+0x688>)
 8002264:	f7fe f99a 	bl	800059c <__aeabi_fsub>
 8002268:	4639      	mov	r1, r7
 800226a:	f7fe faa1 	bl	80007b0 <__aeabi_fmul>
 800226e:	4935      	ldr	r1, [pc, #212]	; (8002344 <__ieee754_powf+0x68c>)
 8002270:	f7fe f996 	bl	80005a0 <__addsf3>
 8002274:	4639      	mov	r1, r7
 8002276:	f7fe fa9b 	bl	80007b0 <__aeabi_fmul>
 800227a:	4601      	mov	r1, r0
 800227c:	4630      	mov	r0, r6
 800227e:	f7fe f98d 	bl	800059c <__aeabi_fsub>
 8002282:	4607      	mov	r7, r0
 8002284:	4601      	mov	r1, r0
 8002286:	4630      	mov	r0, r6
 8002288:	f7fe fa92 	bl	80007b0 <__aeabi_fmul>
 800228c:	f04f 4180 	mov.w	r1, #1073741824	; 0x40000000
 8002290:	4681      	mov	r9, r0
 8002292:	4638      	mov	r0, r7
 8002294:	f7fe f982 	bl	800059c <__aeabi_fsub>
 8002298:	4601      	mov	r1, r0
 800229a:	4648      	mov	r0, r9
 800229c:	f7fe fb3c 	bl	8000918 <__aeabi_fdiv>
 80022a0:	4641      	mov	r1, r8
 80022a2:	4607      	mov	r7, r0
 80022a4:	4630      	mov	r0, r6
 80022a6:	f7fe fa83 	bl	80007b0 <__aeabi_fmul>
 80022aa:	4641      	mov	r1, r8
 80022ac:	f7fe f978 	bl	80005a0 <__addsf3>
 80022b0:	4601      	mov	r1, r0
 80022b2:	4638      	mov	r0, r7
 80022b4:	f7fe f972 	bl	800059c <__aeabi_fsub>
 80022b8:	4631      	mov	r1, r6
 80022ba:	f7fe f96f 	bl	800059c <__aeabi_fsub>
 80022be:	4601      	mov	r1, r0
 80022c0:	f04f 507e 	mov.w	r0, #1065353216	; 0x3f800000
 80022c4:	f7fe f96a 	bl	800059c <__aeabi_fsub>
 80022c8:	eb00 53c4 	add.w	r3, r0, r4, lsl #23
 80022cc:	f5b3 0f00 	cmp.w	r3, #8388608	; 0x800000
 80022d0:	da1e      	bge.n	8002310 <__ieee754_powf+0x658>
 80022d2:	4621      	mov	r1, r4
 80022d4:	f000 f8f0 	bl	80024b8 <scalbnf>
 80022d8:	4629      	mov	r1, r5
 80022da:	e54a      	b.n	8001d72 <__ieee754_powf+0xba>
 80022dc:	4b1a      	ldr	r3, [pc, #104]	; (8002348 <__ieee754_powf+0x690>)
 80022de:	429c      	cmp	r4, r3
 80022e0:	dd05      	ble.n	80022ee <__ieee754_powf+0x636>
 80022e2:	491a      	ldr	r1, [pc, #104]	; (800234c <__ieee754_powf+0x694>)
 80022e4:	4628      	mov	r0, r5
 80022e6:	f7fe fa63 	bl	80007b0 <__aeabi_fmul>
 80022ea:	4918      	ldr	r1, [pc, #96]	; (800234c <__ieee754_powf+0x694>)
 80022ec:	e541      	b.n	8001d72 <__ieee754_powf+0xba>
 80022ee:	d109      	bne.n	8002304 <__ieee754_powf+0x64c>
 80022f0:	4639      	mov	r1, r7
 80022f2:	f7fe f953 	bl	800059c <__aeabi_fsub>
 80022f6:	4631      	mov	r1, r6
 80022f8:	f7fe fc0c 	bl	8000b14 <__aeabi_fcmpge>
 80022fc:	2800      	cmp	r0, #0
 80022fe:	f43f af51 	beq.w	80021a4 <__ieee754_powf+0x4ec>
 8002302:	e7ee      	b.n	80022e2 <__ieee754_powf+0x62a>
 8002304:	f1b4 5f7c 	cmp.w	r4, #1056964608	; 0x3f000000
 8002308:	f73f af4c 	bgt.w	80021a4 <__ieee754_powf+0x4ec>
 800230c:	2400      	movs	r4, #0
 800230e:	e765      	b.n	80021dc <__ieee754_powf+0x524>
 8002310:	4618      	mov	r0, r3
 8002312:	e7e1      	b.n	80022d8 <__ieee754_powf+0x620>
 8002314:	f04f 517e 	mov.w	r1, #1065353216	; 0x3f800000
 8002318:	e518      	b.n	8001d4c <__ieee754_powf+0x94>
 800231a:	9901      	ldr	r1, [sp, #4]
 800231c:	e516      	b.n	8001d4c <__ieee754_powf+0x94>
 800231e:	bf00      	nop
 8002320:	3338aa3c 	.word	0x3338aa3c
 8002324:	007fffff 	.word	0x007fffff
 8002328:	3f317200 	.word	0x3f317200
 800232c:	3f317218 	.word	0x3f317218
 8002330:	35bfbe8c 	.word	0x35bfbe8c
 8002334:	3331bb4c 	.word	0x3331bb4c
 8002338:	35ddea0e 	.word	0x35ddea0e
 800233c:	388ab355 	.word	0x388ab355
 8002340:	3b360b61 	.word	0x3b360b61
 8002344:	3e2aaaab 	.word	0x3e2aaaab
 8002348:	43160000 	.word	0x43160000
 800234c:	0da24260 	.word	0x0da24260

08002350 <__ieee754_sqrtf>:
 8002350:	f020 4200 	bic.w	r2, r0, #2147483648	; 0x80000000
 8002354:	f1b2 4fff 	cmp.w	r2, #2139095040	; 0x7f800000
 8002358:	b570      	push	{r4, r5, r6, lr}
 800235a:	4603      	mov	r3, r0
 800235c:	4604      	mov	r4, r0
 800235e:	d309      	bcc.n	8002374 <__ieee754_sqrtf+0x24>
 8002360:	4601      	mov	r1, r0
 8002362:	f7fe fa25 	bl	80007b0 <__aeabi_fmul>
 8002366:	4601      	mov	r1, r0
 8002368:	4620      	mov	r0, r4
 800236a:	f7fe f919 	bl	80005a0 <__addsf3>
 800236e:	4604      	mov	r4, r0
 8002370:	4620      	mov	r0, r4
 8002372:	bd70      	pop	{r4, r5, r6, pc}
 8002374:	2a00      	cmp	r2, #0
 8002376:	d0fb      	beq.n	8002370 <__ieee754_sqrtf+0x20>
 8002378:	2800      	cmp	r0, #0
 800237a:	da06      	bge.n	800238a <__ieee754_sqrtf+0x3a>
 800237c:	4601      	mov	r1, r0
 800237e:	f7fe f90d 	bl	800059c <__aeabi_fsub>
 8002382:	4601      	mov	r1, r0
 8002384:	f7fe fac8 	bl	8000918 <__aeabi_fdiv>
 8002388:	e7f1      	b.n	800236e <__ieee754_sqrtf+0x1e>
 800238a:	f5b2 0f00 	cmp.w	r2, #8388608	; 0x800000
 800238e:	ea4f 54e0 	mov.w	r4, r0, asr #23
 8002392:	d32e      	bcc.n	80023f2 <__ieee754_sqrtf+0xa2>
 8002394:	3c7f      	subs	r4, #127	; 0x7f
 8002396:	07e2      	lsls	r2, r4, #31
 8002398:	f04f 0200 	mov.w	r2, #0
 800239c:	ea4f 0164 	mov.w	r1, r4, asr #1
 80023a0:	4616      	mov	r6, r2
 80023a2:	f04f 0419 	mov.w	r4, #25
 80023a6:	f04f 7080 	mov.w	r0, #16777216	; 0x1000000
 80023aa:	f3c3 0316 	ubfx	r3, r3, #0, #23
 80023ae:	f443 0300 	orr.w	r3, r3, #8388608	; 0x800000
 80023b2:	bf48      	it	mi
 80023b4:	005b      	lslmi	r3, r3, #1
 80023b6:	005b      	lsls	r3, r3, #1
 80023b8:	1835      	adds	r5, r6, r0
 80023ba:	429d      	cmp	r5, r3
 80023bc:	bfde      	ittt	le
 80023be:	182e      	addle	r6, r5, r0
 80023c0:	1b5b      	suble	r3, r3, r5
 80023c2:	1812      	addle	r2, r2, r0
 80023c4:	3c01      	subs	r4, #1
 80023c6:	ea4f 0343 	mov.w	r3, r3, lsl #1
 80023ca:	ea4f 0050 	mov.w	r0, r0, lsr #1
 80023ce:	d1f3      	bne.n	80023b8 <__ieee754_sqrtf+0x68>
 80023d0:	b113      	cbz	r3, 80023d8 <__ieee754_sqrtf+0x88>
 80023d2:	3201      	adds	r2, #1
 80023d4:	f022 0201 	bic.w	r2, r2, #1
 80023d8:	1054      	asrs	r4, r2, #1
 80023da:	f104 547c 	add.w	r4, r4, #1056964608	; 0x3f000000
 80023de:	eb04 54c1 	add.w	r4, r4, r1, lsl #23
 80023e2:	e7c5      	b.n	8002370 <__ieee754_sqrtf+0x20>
 80023e4:	005b      	lsls	r3, r3, #1
 80023e6:	3201      	adds	r2, #1
 80023e8:	0219      	lsls	r1, r3, #8
 80023ea:	d5fb      	bpl.n	80023e4 <__ieee754_sqrtf+0x94>
 80023ec:	3a01      	subs	r2, #1
 80023ee:	1aa4      	subs	r4, r4, r2
 80023f0:	e7d0      	b.n	8002394 <__ieee754_sqrtf+0x44>
 80023f2:	2200      	movs	r2, #0
 80023f4:	e7f8      	b.n	80023e8 <__ieee754_sqrtf+0x98>

080023f6 <matherr>:
 80023f6:	2000      	movs	r0, #0
 80023f8:	4770      	bx	lr

080023fa <fabsf>:
 80023fa:	f020 4000 	bic.w	r0, r0, #2147483648	; 0x80000000
 80023fe:	4770      	bx	lr

08002400 <finitef>:
 8002400:	f020 4000 	bic.w	r0, r0, #2147483648	; 0x80000000
 8002404:	f1b0 4fff 	cmp.w	r0, #2139095040	; 0x7f800000
 8002408:	bfac      	ite	ge
 800240a:	2000      	movge	r0, #0
 800240c:	2001      	movlt	r0, #1
 800240e:	4770      	bx	lr

08002410 <nanf>:
 8002410:	4800      	ldr	r0, [pc, #0]	; (8002414 <nanf+0x4>)
 8002412:	4770      	bx	lr
 8002414:	7fc00000 	.word	0x7fc00000

08002418 <rintf>:
 8002418:	b537      	push	{r0, r1, r2, r4, r5, lr}
 800241a:	f020 4200 	bic.w	r2, r0, #2147483648	; 0x80000000
 800241e:	0dd5      	lsrs	r5, r2, #23
 8002420:	3d7f      	subs	r5, #127	; 0x7f
 8002422:	2d16      	cmp	r5, #22
 8002424:	4601      	mov	r1, r0
 8002426:	dc3b      	bgt.n	80024a0 <rintf+0x88>
 8002428:	b1e2      	cbz	r2, 8002464 <rintf+0x4c>
 800242a:	2d00      	cmp	r5, #0
 800242c:	4602      	mov	r2, r0
 800242e:	ea4f 74d0 	mov.w	r4, r0, lsr #31
 8002432:	da1a      	bge.n	800246a <rintf+0x52>
 8002434:	4a1e      	ldr	r2, [pc, #120]	; (80024b0 <rintf+0x98>)
 8002436:	f3c0 0116 	ubfx	r1, r0, #0, #23
 800243a:	4249      	negs	r1, r1
 800243c:	f852 5024 	ldr.w	r5, [r2, r4, lsl #2]
 8002440:	0d03      	lsrs	r3, r0, #20
 8002442:	0a49      	lsrs	r1, r1, #9
 8002444:	051b      	lsls	r3, r3, #20
 8002446:	f401 0180 	and.w	r1, r1, #4194304	; 0x400000
 800244a:	4319      	orrs	r1, r3
 800244c:	4628      	mov	r0, r5
 800244e:	f7fe f8a7 	bl	80005a0 <__addsf3>
 8002452:	9001      	str	r0, [sp, #4]
 8002454:	4629      	mov	r1, r5
 8002456:	9801      	ldr	r0, [sp, #4]
 8002458:	f7fe f8a0 	bl	800059c <__aeabi_fsub>
 800245c:	f020 4100 	bic.w	r1, r0, #2147483648	; 0x80000000
 8002460:	ea41 71c4 	orr.w	r1, r1, r4, lsl #31
 8002464:	4608      	mov	r0, r1
 8002466:	b003      	add	sp, #12
 8002468:	bd30      	pop	{r4, r5, pc}
 800246a:	4b12      	ldr	r3, [pc, #72]	; (80024b4 <rintf+0x9c>)
 800246c:	412b      	asrs	r3, r5
 800246e:	4218      	tst	r0, r3
 8002470:	d0f8      	beq.n	8002464 <rintf+0x4c>
 8002472:	0859      	lsrs	r1, r3, #1
 8002474:	4208      	tst	r0, r1
 8002476:	d006      	beq.n	8002486 <rintf+0x6e>
 8002478:	ea20 0201 	bic.w	r2, r0, r1
 800247c:	f44f 1100 	mov.w	r1, #2097152	; 0x200000
 8002480:	fa41 f505 	asr.w	r5, r1, r5
 8002484:	432a      	orrs	r2, r5
 8002486:	4b0a      	ldr	r3, [pc, #40]	; (80024b0 <rintf+0x98>)
 8002488:	4611      	mov	r1, r2
 800248a:	f853 4024 	ldr.w	r4, [r3, r4, lsl #2]
 800248e:	4620      	mov	r0, r4
 8002490:	f7fe f886 	bl	80005a0 <__addsf3>
 8002494:	9001      	str	r0, [sp, #4]
 8002496:	9801      	ldr	r0, [sp, #4]
 8002498:	4621      	mov	r1, r4
 800249a:	f7fe f87f 	bl	800059c <__aeabi_fsub>
 800249e:	e004      	b.n	80024aa <rintf+0x92>
 80024a0:	f1b2 4fff 	cmp.w	r2, #2139095040	; 0x7f800000
 80024a4:	d3de      	bcc.n	8002464 <rintf+0x4c>
 80024a6:	f7fe f87b 	bl	80005a0 <__addsf3>
 80024aa:	4601      	mov	r1, r0
 80024ac:	e7da      	b.n	8002464 <rintf+0x4c>
 80024ae:	bf00      	nop
 80024b0:	08002604 	.word	0x08002604
 80024b4:	007fffff 	.word	0x007fffff

080024b8 <scalbnf>:
 80024b8:	f030 4300 	bics.w	r3, r0, #2147483648	; 0x80000000
 80024bc:	b510      	push	{r4, lr}
 80024be:	4602      	mov	r2, r0
 80024c0:	460c      	mov	r4, r1
 80024c2:	4601      	mov	r1, r0
 80024c4:	d027      	beq.n	8002516 <scalbnf+0x5e>
 80024c6:	f1b3 4fff 	cmp.w	r3, #2139095040	; 0x7f800000
 80024ca:	d303      	bcc.n	80024d4 <scalbnf+0x1c>
 80024cc:	f7fe f868 	bl	80005a0 <__addsf3>
 80024d0:	4602      	mov	r2, r0
 80024d2:	e020      	b.n	8002516 <scalbnf+0x5e>
 80024d4:	f5b3 0f00 	cmp.w	r3, #8388608	; 0x800000
 80024d8:	d215      	bcs.n	8002506 <scalbnf+0x4e>
 80024da:	f04f 4198 	mov.w	r1, #1275068416	; 0x4c000000
 80024de:	f7fe f967 	bl	80007b0 <__aeabi_fmul>
 80024e2:	4b18      	ldr	r3, [pc, #96]	; (8002544 <scalbnf+0x8c>)
 80024e4:	4602      	mov	r2, r0
 80024e6:	429c      	cmp	r4, r3
 80024e8:	db22      	blt.n	8002530 <scalbnf+0x78>
 80024ea:	f3c0 53c7 	ubfx	r3, r0, #23, #8
 80024ee:	3b19      	subs	r3, #25
 80024f0:	4423      	add	r3, r4
 80024f2:	2bfe      	cmp	r3, #254	; 0xfe
 80024f4:	dd09      	ble.n	800250a <scalbnf+0x52>
 80024f6:	4611      	mov	r1, r2
 80024f8:	4813      	ldr	r0, [pc, #76]	; (8002548 <scalbnf+0x90>)
 80024fa:	f000 f829 	bl	8002550 <copysignf>
 80024fe:	4912      	ldr	r1, [pc, #72]	; (8002548 <scalbnf+0x90>)
 8002500:	f7fe f956 	bl	80007b0 <__aeabi_fmul>
 8002504:	e7e4      	b.n	80024d0 <scalbnf+0x18>
 8002506:	0ddb      	lsrs	r3, r3, #23
 8002508:	e7f2      	b.n	80024f0 <scalbnf+0x38>
 800250a:	2b00      	cmp	r3, #0
 800250c:	dd05      	ble.n	800251a <scalbnf+0x62>
 800250e:	f020 40ff 	bic.w	r0, r0, #2139095040	; 0x7f800000
 8002512:	ea40 52c3 	orr.w	r2, r0, r3, lsl #23
 8002516:	4610      	mov	r0, r2
 8002518:	bd10      	pop	{r4, pc}
 800251a:	f113 0f16 	cmn.w	r3, #22
 800251e:	da09      	bge.n	8002534 <scalbnf+0x7c>
 8002520:	f24c 3350 	movw	r3, #50000	; 0xc350
 8002524:	429c      	cmp	r4, r3
 8002526:	4611      	mov	r1, r2
 8002528:	dce6      	bgt.n	80024f8 <scalbnf+0x40>
 800252a:	4808      	ldr	r0, [pc, #32]	; (800254c <scalbnf+0x94>)
 800252c:	f000 f810 	bl	8002550 <copysignf>
 8002530:	4906      	ldr	r1, [pc, #24]	; (800254c <scalbnf+0x94>)
 8002532:	e7e5      	b.n	8002500 <scalbnf+0x48>
 8002534:	3319      	adds	r3, #25
 8002536:	f020 40ff 	bic.w	r0, r0, #2139095040	; 0x7f800000
 800253a:	f04f 514c 	mov.w	r1, #855638016	; 0x33000000
 800253e:	ea40 50c3 	orr.w	r0, r0, r3, lsl #23
 8002542:	e7dd      	b.n	8002500 <scalbnf+0x48>
 8002544:	ffff3cb0 	.word	0xffff3cb0
 8002548:	7149f2ca 	.word	0x7149f2ca
 800254c:	0da24260 	.word	0x0da24260

08002550 <copysignf>:
 8002550:	f001 4100 	and.w	r1, r1, #2147483648	; 0x80000000
 8002554:	f020 4000 	bic.w	r0, r0, #2147483648	; 0x80000000
 8002558:	4308      	orrs	r0, r1
 800255a:	4770      	bx	lr

0800255c <__errno>:
 800255c:	4b01      	ldr	r3, [pc, #4]	; (8002564 <__errno+0x8>)
 800255e:	6818      	ldr	r0, [r3, #0]
 8002560:	4770      	bx	lr
 8002562:	bf00      	nop
 8002564:	2000000c 	.word	0x2000000c

08002568 <__libc_init_array>:
 8002568:	b570      	push	{r4, r5, r6, lr}
 800256a:	2500      	movs	r5, #0
 800256c:	4e0c      	ldr	r6, [pc, #48]	; (80025a0 <__libc_init_array+0x38>)
 800256e:	4c0d      	ldr	r4, [pc, #52]	; (80025a4 <__libc_init_array+0x3c>)
 8002570:	1ba4      	subs	r4, r4, r6
 8002572:	10a4      	asrs	r4, r4, #2
 8002574:	42a5      	cmp	r5, r4
 8002576:	d109      	bne.n	800258c <__libc_init_array+0x24>
 8002578:	f000 f81a 	bl	80025b0 <_init>
 800257c:	2500      	movs	r5, #0
 800257e:	4e0a      	ldr	r6, [pc, #40]	; (80025a8 <__libc_init_array+0x40>)
 8002580:	4c0a      	ldr	r4, [pc, #40]	; (80025ac <__libc_init_array+0x44>)
 8002582:	1ba4      	subs	r4, r4, r6
 8002584:	10a4      	asrs	r4, r4, #2
 8002586:	42a5      	cmp	r5, r4
 8002588:	d105      	bne.n	8002596 <__libc_init_array+0x2e>
 800258a:	bd70      	pop	{r4, r5, r6, pc}
 800258c:	f856 3025 	ldr.w	r3, [r6, r5, lsl #2]
 8002590:	4798      	blx	r3
 8002592:	3501      	adds	r5, #1
 8002594:	e7ee      	b.n	8002574 <__libc_init_array+0xc>
 8002596:	f856 3025 	ldr.w	r3, [r6, r5, lsl #2]
 800259a:	4798      	blx	r3
 800259c:	3501      	adds	r5, #1
 800259e:	e7f2      	b.n	8002586 <__libc_init_array+0x1e>
 80025a0:	0800260c 	.word	0x0800260c
 80025a4:	0800260c 	.word	0x0800260c
 80025a8:	0800260c 	.word	0x0800260c
 80025ac:	08002610 	.word	0x08002610

080025b0 <_init>:
 80025b0:	b5f8      	push	{r3, r4, r5, r6, r7, lr}
 80025b2:	bf00      	nop
 80025b4:	bcf8      	pop	{r3, r4, r5, r6, r7}
 80025b6:	bc08      	pop	{r3}
 80025b8:	469e      	mov	lr, r3
 80025ba:	4770      	bx	lr

080025bc <_fini>:
 80025bc:	b5f8      	push	{r3, r4, r5, r6, r7, lr}
 80025be:	bf00      	nop
 80025c0:	bcf8      	pop	{r3, r4, r5, r6, r7}
 80025c2:	bc08      	pop	{r3}
 80025c4:	469e      	mov	lr, r3
 80025c6:	4770      	bx	lr
